Certificate:
    Data:
        Version: 3 (0x2)
        Serial Number:
            d5:29:2e:56:3f:6c:27:d1:f8:86:47:f2:c7:80:06:25
        Signature Algorithm: sha256WithRSAEncryption
        Issuer: CN=EV Code Signing CA, OU=CA, O=Example Co, C=US
        Validity
            Not Before: Jun 14 17:54:47 2026 GMT
            Not After : Jun 14 17:54:47 2027 GMT
        Subject: CN=Example Co, O=Example Co, L=Mountain View, ST=California, C=US, jurisdictionL=Mountain View, jurisdictionST=California, jurisdictionC=US, serialNumber=12345678, businessCategory=Private Organization
        Subject Public Key Info:
            Public Key Algorithm: rsaEncryption
                Public-Key: (3072 bit)
                Modulus:
                    00:cd:ee:b1:79:ac:24:51:76:df:02:bd:4f:82:74:
                    b3:5d:d4:da:4d:c2:2d:06:5e:d3:5c:81:5a:ad:51:
                    71:92:1e:7a:c7:b1:9d:ac:0a:d4:90:db:6c:3a:d4:
                    2b:56:ec:73:3d:00:3d:de:bf:c5:74:35:a6:73:9a:
                    b6:cd:b4:01:9b:d5:2d:c9:79:bf:71:86:77:b7:d9:
                    9d:5e:28:01:43:06:b5:6a:64:81:9f:9a:cc:2f:48:
                    4c:35:75:57:f7:da:91:5a:1e:1a:dd:5c:c5:b5:ca:
                    a0:ec:ef:91:71:a8:a3:2b:0c:fb:c1:05:60:09:65:
                    39:8d:c8:db:c7:ca:54:85:06:bd:f5:1b:a1:25:95:
                    07:bd:bb:5b:18:51:d8:89:a1:7c:5b:8b:16:b6:da:
                    69:c2:2d:58:96:c3:4e:55:41:73:08:1b:eb:85:bd:
                    4f:a3:1a:70:6c:ae:99:c7:16:c0:e5:d5:5f:13:72:
                    68:d9:43:e8:69:22:24:e6:dc:a0:71:9e:ae:fa:8f:
                    d1:a1:b7:2e:be:00:9c:07:6b:b3:8e:b0:1b:24:fa:
                    06:6f:b2:76:ca:c3:b0:b4:6a:f8:b2:6b:af:0c:61:
                    d3:46:62:72:13:c1:e9:87:ab:62:01:fd:c1:97:54:
                    59:6d:fb:f9:a1:9a:92:64:b4:dd:15:6a:48:c5:b2:
                    4f:8a:a0:4e:24:a4:03:f7:71:a7:c8:f3:52:7e:33:
                    bc:58:04:b9:8f:e2:ee:62:8d:4a:90:64:b3:c0:87:
                    38:74:fc:3e:f2:5e:a9:f0:18:67:26:86:ce:f6:34:
                    eb:34:4b:80:bb:51:c4:04:e5:74:d5:7f:ac:3a:9e:
                    3c:0b:16:f0:be:00:30:a8:4f:ff:7e:96:52:5c:ae:
                    0a:4c:68:55:b9:b9:48:83:a3:9f:61:c3:d4:ed:5e:
                    05:49:f6:eb:ae:29:fa:18:41:12:44:7e:57:1b:da:
                    03:55:2e:de:87:23:c1:40:51:f1:3d:ef:7f:0d:f1:
                    fa:5d:86:89:b5:42:4d:3f:c9:57
                Exponent: 65537 (0x10001)
        X509v3 extensions:
            X509v3 Key Usage: critical
                Digital Signature
            X509v3 Extended Key Usage: 
                Code Signing
            X509v3 Basic Constraints: critical
                CA:FALSE
            X509v3 Subject Key Identifier: 
                69:84:FA:C0:A3:30:19:B8:E1:0A:AF:1B:C3:4E:04:BD:26:86:89:FA
            X509v3 Authority Key Identifier: 
                F0:6A:F4:B5:52:86:50:0E:5B:34:24:8E:FF:30:8E:C6:DA:B4:16:9B
            Authority Information Access: 
                OCSP - URI:http://ocsp.example.com
                CA Issuers - URI:http://example.com/ca1.crt
            X509v3 Certificate Policies: 
                Policy: 2.23.140.1.3
            X509v3 CRL Distribution Points: 
                Full Name:
                  URI:http://crl1.example.com/ca1.crl

                Full Name:
                  URI:http://crl2.example.com/ca1.crl


    Signature Algorithm: sha256WithRSAEncryption
    Signature Value:
        88:e1:dc:4e:d7:28:bc:03:2d:9d:6a:b2:43:0f:d3:ca:fb:c8:
        b5:4c:6f:bc:22:2b:a8:d0:f0:ba:1c:f0:98:f7:88:29:7f:fe:
        6c:22:97:b1:50:fb:6b:ee:6d:55:5c:7e:e3:08:32:a3:2b:5d:
        c6:00:9b:f8:15:02:20:41:cf:4a:ba:b7:0f:cc:e3:98:5c:a8:
        cf:13:cb:c6:88:bc:ac:6f:2e:a7:3e:22:45:5e:5f:47:f9:45:
        07:49:da:8f:7f:6c:ac:87:2d:c4:d6:57:3c:56:d4:8d:f9:28:
        1e:fe:89:02:e1:d8:48:b2:d0:c5:14:3b:75:18:37:47:28:55:
        a3:ed:a9:f6:ce:ce:bb:f1:80:81:71:51:b1:97:0e:37:5b:9e:
        09:03:fd:4d:ca:5c:d4:89:76:72:99:d8:2b:81:65:52:2c:29:
        e8:2b:7a:c8:a3:42:35:8b:8c:2d:4b:e7:aa:26:3f:09:e1:7c:
        67:e9:54:b4:cd:85:17:95:86:76:16:6d:2a:28:0e:95:63:d9:
        68:38:51:e8:23:86:09:dc:2a:82:0f:7a:bf:83:53:62:40:49:
        72:63:e4:3c:36:74:fc:ff:c0:02:6e:e5:96:5c:7e:d1:32:27:
        f6:01:b1:ea:35:85:ca:53:16:5e:0b:a5:55:c4:af:6f:2b:69:
        27:5d:71:1c:6e:3a:12:51:a6:ec:2e:17:b2:96:74:2c:c2:7c:
        94:1f:b5:16:a3:09:94:c4:1e:4a:d5:3c:15:c5:25:72:41:77:
        95:23:69:e5:07:68:12:ed:ab:37:39:46:cc:bb:52:9b:91:d6:
        3b:8e:52:9b:63:18:52:7b:ab:c8:1b:39:52:b0:d6:b0:c8:b2:
        ea:dc:31:16:4a:85:d0:28:e4:db:5b:42:e1:c0:bd:0a:8d:74:
        7d:10:96:43:99:e7:f8:7b:6f:5e:bf:a4:62:cc:a7:69:9f:9f:
        54:ba:18:d3:80:19:92:14:bb:9f:c1:66:61:14:af:07:94:fd:
        b4:16:93:f5:16:ec
-----BEGIN CERTIFICATE-----
MIIGAzCCBGugAwIBAgIRANUpLlY/bCfR+IZH8seABiUwDQYJKoZIhvcNAQELBQAw
TDEbMBkGA1UEAxMSRVYgQ29kZSBTaWduaW5nIENBMQswCQYDVQQLEwJDQTETMBEG
A1UEChMKRXhhbXBsZSBDbzELMAkGA1UEBhMCVVMwHhcNMjYwNjE0MTc1NDQ3WhcN
MjcwNjE0MTc1NDQ3WjCB6DETMBEGA1UEAxMKRXhhbXBsZSBDbzETMBEGA1UEChMK
RXhhbXBsZSBDbzEWMBQGA1UEBxMNTW91bnRhaW4gVmlldzETMBEGA1UECBMKQ2Fs
aWZvcm5pYTELMAkGA1UEBhMCVVMxHjAcBgsrBgEEAYI3PAIBARMNTW91bnRhaW4g
VmlldzEbMBkGCysGAQQBgjc8AgECEwpDYWxpZm9ybmlhMRMwEQYLKwYBBAGCNzwC
AQMTAlVTMREwDwYDVQQFEwgxMjM0NTY3ODEdMBsGA1UEDxMUUHJpdmF0ZSBPcmdh
bml6YXRpb24wggGiMA0GCSqGSIb3DQEBAQUAA4IBjwAwggGKAoIBgQDN7rF5rCRR
dt8CvU+CdLNd1NpNwi0GXtNcgVqtUXGSHnrHsZ2sCtSQ22w61CtW7HM9AD3ev8V0
NaZzmrbNtAGb1S3Jeb9xhne32Z1eKAFDBrVqZIGfmswvSEw1dVf32pFaHhrdXMW1
yqDs75FxqKMrDPvBBWAJZTmNyNvHylSFBr31G6EllQe9u1sYUdiJoXxbixa22mnC
LViWw05VQXMIG+uFvU+jGnBsrpnHFsDl1V8TcmjZQ+hpIiTm3KBxnq76j9Ghty6+
AJwHa7OOsBsk+gZvsnbKw7C0aviya68MYdNGYnITwemHq2IB/cGXVFlt+/mhmpJk
tN0VakjFsk+KoE4kpAP3cafI81J+M7xYBLmP4u5ijUqQZLPAhzh0/D7yXqnwGGcm
hs72NOs0S4C7UcQE5XTVf6w6njwLFvC+ADCoT/9+llJcrgpMaFW5uUiDo59hw9Tt
XgVJ9uuuKfoYQRJEflcb2gNVLt6HI8FAUfE9738N8fpdhom1Qk0/yVcCAwEAAaOC
AUEwggE9MA4GA1UdDwEB/wQEAwIHgDATBgNVHSUEDDAKBggrBgEFBQcDAzAMBgNV
HRMBAf8EAjAAMB0GA1UdDgQWBBRphPrAozAZuOEKrxvDTgS9JoaJ+jAfBgNVHSME
GDAWgBTwavS1UoZQDls0JI7/MI7G2rQWmzBbBggrBgEFBQcBAQRPME0wIwYIKwYB
BQUHMAGGF2h0dHA6Ly9vY3NwLmV4YW1wbGUuY29tMCYGCCsGAQUFBzAChhpodHRw
Oi8vZXhhbXBsZS5jb20vY2ExLmNydDASBgNVHSAECzAJMAcGBWeBDAEDMFcGA1Ud
HwRQME4wJaAjoCGGH2h0dHA6Ly9jcmwxLmV4YW1wbGUuY29tL2NhMS5jcmwwJaAj
oCGGH2h0dHA6Ly9jcmwyLmV4YW1wbGUuY29tL2NhMS5jcmwwDQYJKoZIhvcNAQEL
BQADggGBAIjh3E7XKLwDLZ1qskMP08r7yLVMb7wiK6jQ8Loc8Jj3iCl//mwil7FQ
+2vubVVcfuMIMqMrXcYAm/gVAiBBz0q6tw/M45hcqM8Ty8aIvKxvLqc+IkVeX0f5
RQdJ2o9/bKyHLcTWVzxW1I35KB7+iQLh2Eiy0MUUO3UYN0coVaPtqfbOzrvxgIFx
UbGXDjdbngkD/U3KXNSJdnKZ2CuBZVIsKegresijQjWLjC1L56omPwnhfGfpVLTN
hReVhnYWbSooDpVj2Wg4UegjhgncKoIPer+DU2JASXJj5Dw2dPz/wAJu5ZZcftEy
J/YBseo1hcpTFl4LpVXEr28raSddcRxuOhJRpuwuF7KWdCzCfJQftRajCZTEHkrV
PBXFJXJBd5UjaeUHaBLtqzc5Rsy7UpuR1juOUptjGFJ7q8gbOVKw1rDIsurcMRZK
hdAo5NtbQuHAvQqNdH0QlkOZ5/h7b16/pGLMp2mfn1S6GNOAGZIUu5/BZmEUrweU
/bQWk/UW7A==
-----END CERTIFICATE-----
