

Certificate:
    Data:
        Version: 3 (0x2)
        Serial Number:
            99:aa:a1:bb:8e:2c:7d:6e:c6:81:e3:86:a1:ea:53:e4
        Signature Algorithm: sha256WithRSAEncryption
        Issuer: CN=EV Code Signing CA, OU=CA, O=Example Co, C=US
        Validity
            Not Before: Jun 14 18:00:26 2026 GMT
            Not After : Jun 14 18:00:26 2027 GMT
        Subject: CN=Example Co, L=Mountain View, ST=California, C=US, jurisdictionL=Mountain View, jurisdictionST=California, jurisdictionC=US, serialNumber=12345678, businessCategory=Private Organization
        Subject Public Key Info:
            Public Key Algorithm: rsaEncryption
                Public-Key: (3072 bit)
                Modulus:
                    00:b6:f5:b2:62:47:38:6e:11:ea:19:07:a0:80:1a:
                    fb:ca:a6:09:27:8f:a0:89:88:28:4e:48:b6:b2:4b:
                    16:ff:81:85:55:16:37:27:e3:0e:2b:9c:0d:b1:34:
                    5d:c6:55:80:9f:18:d3:ff:f7:f8:ca:6e:66:26:d2:
                    4a:37:08:80:16:d9:70:49:c8:ae:e2:b7:5d:16:9c:
                    2e:4a:46:5f:f8:ee:23:63:32:4b:2f:41:36:29:d6:
                    76:19:f0:b5:37:76:61:01:1e:0e:f2:4d:40:6c:b0:
                    76:82:98:82:32:82:f3:80:9e:c2:2a:1b:86:9c:96:
                    be:50:f2:d4:54:33:a0:01:5b:5d:6b:48:61:bb:0d:
                    6e:ab:54:9a:9a:7c:45:1a:39:2c:f1:57:de:a7:f7:
                    c7:46:dc:76:17:7e:28:74:a7:3e:20:3e:0d:f8:77:
                    75:19:db:10:dc:f1:65:a4:81:c5:98:f8:63:dc:10:
                    dd:af:19:c1:66:c4:2d:dd:43:f5:94:1a:36:99:d5:
                    58:5d:22:da:f3:c6:7b:cd:99:d3:ca:9f:a1:b2:70:
                    03:d6:d0:99:bb:de:f2:1a:8e:41:e3:e5:ee:1f:ac:
                    38:00:31:2e:5d:c4:1b:49:89:16:6f:74:d9:5f:a8:
                    8d:57:dc:8c:f5:8c:ad:06:8b:f0:15:aa:fb:aa:f7:
                    92:97:6d:dd:6d:39:49:1a:f7:52:71:7d:ea:cd:aa:
                    41:24:38:b9:f5:7a:b2:fb:a8:a3:82:f5:f1:dc:ba:
                    cf:13:af:6f:e6:d1:6e:d4:d9:7d:31:37:2b:4b:4a:
                    e8:e4:82:05:07:84:5d:a6:22:81:b4:bc:d1:0a:14:
                    0c:61:93:2b:9c:34:c5:e8:bc:cb:af:d6:61:29:09:
                    05:38:fb:52:da:30:1a:a3:2b:60:99:86:b3:80:63:
                    8c:48:7d:2f:77:ac:e4:97:b8:97:25:94:d7:0c:88:
                    9e:57:76:6b:8c:66:74:5b:56:1b:32:db:d7:7e:78:
                    c5:a8:76:d7:d1:1f:50:a5:ae:df
                Exponent: 65537 (0x10001)
        X509v3 extensions:
            X509v3 Key Usage: critical
                Digital Signature
            X509v3 Extended Key Usage: 
                Code Signing
            X509v3 Basic Constraints: critical
                CA:FALSE
            X509v3 Subject Key Identifier: 
                37:34:35:F1:6B:EE:7C:C7:98:57:01:A8:9A:0E:C1:36:28:44:46:A9
            X509v3 Authority Key Identifier: 
                7F:D8:4C:DB:5B:24:99:C7:C8:4C:2C:61:F0:F8:AD:9E:02:11:B7:80
            Authority Information Access: 
                OCSP - URI:http://ocsp.example.com
                CA Issuers - URI:http://example.com/ca1.crt
            X509v3 Certificate Policies: 
                Policy: 2.23.140.1.3
            X509v3 CRL Distribution Points: 
                Full Name:
                  URI:http://crl1.example.com/ca1.crl

                Full Name:
                  URI:http://crl2.example.com/ca1.crl

    Signature Algorithm: sha256WithRSAEncryption
    Signature Value:
        9d:0f:59:14:4d:aa:c9:77:ba:9b:54:17:58:40:c0:4d:e7:fb:
        9d:92:82:d4:f3:83:78:3c:2c:ee:f6:2f:9a:d5:39:7b:65:12:
        01:1f:6d:65:80:4e:bd:23:9e:9b:c4:7f:3e:ff:3f:46:dc:f8:
        2f:41:bc:b7:08:36:10:b4:77:51:26:59:ce:89:b3:09:29:02:
        f2:ac:20:9c:67:41:08:53:29:ee:ae:03:d3:89:e9:a3:6b:12:
        ee:4e:37:18:07:4a:25:41:d0:b6:89:43:ab:33:0b:b3:49:1f:
        a4:15:e2:35:2c:c9:74:4e:c3:22:6f:79:61:a4:38:0c:e9:de:
        53:69:84:5e:ff:e4:a4:91:f9:73:99:63:94:67:c0:7d:91:89:
        0e:d2:5f:b9:b1:90:28:61:1b:b9:7a:33:28:5e:b6:e7:4c:c6:
        a4:31:8e:5e:09:75:b4:85:3b:7d:f2:87:88:dd:03:17:b1:b2:
        45:5b:47:5d:47:f4:5a:b9:37:de:2a:ff:31:91:90:d4:d2:d0:
        b4:84:26:47:34:a6:11:fa:49:4f:50:50:05:02:48:57:5e:22:
        1c:19:9f:dc:b9:54:ac:4f:b6:b5:1c:f7:bf:4a:08:8e:19:14:
        a7:fc:6f:34:f3:f0:35:f1:22:25:b1:5d:51:a9:f5:55:05:50:
        7e:3e:c5:a2:c2:63:74:02:e0:0e:e3:4a:2f:46:d7:84:83:82:
        0e:78:33:ca:34:07:f2:7c:f5:ce:0d:1c:6c:82:3c:25:68:2c:
        28:a0:5b:ea:70:0b:49:8a:cf:c7:a9:91:10:ba:5a:9b:4c:1d:
        a3:90:c6:de:e3:41:8f:80:b7:da:dd:d4:51:7e:62:60:d2:d7:
        28:2a:ab:a2:53:1a:71:84:08:de:80:a5:38:c8:7a:3d:9b:f7:
        5d:4d:e5:fe:07:76:12:b6:9d:a3:62:43:c3:08:32:a7:0a:5d:
        e2:6c:06:b6:4e:35:37:f4:e0:89:55:45:a5:c3:45:96:a3:e2:
        7c:bf:93:3f:0e:b4
-----BEGIN CERTIFICATE-----
MIIF7jCCBFagAwIBAgIRAJmqobuOLH1uxoHjhqHqU+QwDQYJKoZIhvcNAQELBQAw
TDEbMBkGA1UEAxMSRVYgQ29kZSBTaWduaW5nIENBMQswCQYDVQQLEwJDQTETMBEG
A1UEChMKRXhhbXBsZSBDbzELMAkGA1UEBhMCVVMwHhcNMjYwNjE0MTgwMDI2WhcN
MjcwNjE0MTgwMDI2WjCB0zETMBEGA1UEAxMKRXhhbXBsZSBDbzEWMBQGA1UEBxMN
TW91bnRhaW4gVmlldzETMBEGA1UECBMKQ2FsaWZvcm5pYTELMAkGA1UEBhMCVVMx
HjAcBgsrBgEEAYI3PAIBARMNTW91bnRhaW4gVmlldzEbMBkGCysGAQQBgjc8AgEC
EwpDYWxpZm9ybmlhMRMwEQYLKwYBBAGCNzwCAQMTAlVTMREwDwYDVQQFEwgxMjM0
NTY3ODEdMBsGA1UEDxMUUHJpdmF0ZSBPcmdhbml6YXRpb24wggGiMA0GCSqGSIb3
DQEBAQUAA4IBjwAwggGKAoIBgQC29bJiRzhuEeoZB6CAGvvKpgknj6CJiChOSLay
Sxb/gYVVFjcn4w4rnA2xNF3GVYCfGNP/9/jKbmYm0ko3CIAW2XBJyK7it10WnC5K
Rl/47iNjMksvQTYp1nYZ8LU3dmEBHg7yTUBssHaCmIIygvOAnsIqG4aclr5Q8tRU
M6ABW11rSGG7DW6rVJqafEUaOSzxV96n98dG3HYXfih0pz4gPg34d3UZ2xDc8WWk
gcWY+GPcEN2vGcFmxC3dQ/WUGjaZ1VhdItrzxnvNmdPKn6GycAPW0Jm73vIajkHj
5e4frDgAMS5dxBtJiRZvdNlfqI1X3Iz1jK0Gi/AVqvuq95KXbd1tOUka91JxferN
qkEkOLn1erL7qKOC9fHcus8Tr2/m0W7U2X0xNytLSujkggUHhF2mIoG0vNEKFAxh
kyucNMXovMuv1mEpCQU4+1LaMBqjK2CZhrOAY4xIfS93rOSXuJcllNcMiJ5XdmuM
ZnRbVhsy29d+eMWodtfRH1Clrt8CAwEAAaOCAUEwggE9MA4GA1UdDwEB/wQEAwIH
gDATBgNVHSUEDDAKBggrBgEFBQcDAzAMBgNVHRMBAf8EAjAAMB0GA1UdDgQWBBQ3
NDXxa+58x5hXAaiaDsE2KERGqTAfBgNVHSMEGDAWgBR/2EzbWySZx8hMLGHw+K2e
AhG3gDBbBggrBgEFBQcBAQRPME0wIwYIKwYBBQUHMAGGF2h0dHA6Ly9vY3NwLmV4
YW1wbGUuY29tMCYGCCsGAQUFBzAChhpodHRwOi8vZXhhbXBsZS5jb20vY2ExLmNy
dDASBgNVHSAECzAJMAcGBWeBDAEDMFcGA1UdHwRQME4wJaAjoCGGH2h0dHA6Ly9j
cmwxLmV4YW1wbGUuY29tL2NhMS5jcmwwJaAjoCGGH2h0dHA6Ly9jcmwyLmV4YW1w
bGUuY29tL2NhMS5jcmwwDQYJKoZIhvcNAQELBQADggGBAJ0PWRRNqsl3uptUF1hA
wE3n+52SgtTzg3g8LO72L5rVOXtlEgEfbWWATr0jnpvEfz7/P0bc+C9BvLcINhC0
d1EmWc6JswkpAvKsIJxnQQhTKe6uA9OJ6aNrEu5ONxgHSiVB0LaJQ6szC7NJH6QV
4jUsyXROwyJveWGkOAzp3lNphF7/5KSR+XOZY5RnwH2RiQ7SX7mxkChhG7l6Myhe
tudMxqQxjl4JdbSFO33yh4jdAxexskVbR11H9Fq5N94q/zGRkNTS0LSEJkc0phH6
SU9QUAUCSFdeIhwZn9y5VKxPtrUc979KCI4ZFKf8bzTz8DXxIiWxXVGp9VUFUH4+
xaLCY3QC4A7jSi9G14SDgg54M8o0B/J89c4NHGyCPCVoLCigW+pwC0mKz8epkRC6
WptMHaOQxt7jQY+At9rd1FF+YmDS1ygqq6JTGnGECN6ApTjIej2b911N5f4HdhK2
naNiQ8MIMqcKXeJsBrZONTf04IlVRaXDRZaj4ny/kz8OtA==
-----END CERTIFICATE-----
