Certificate:
    Data:
        Version: 3 (0x2)
        Serial Number:
            d8:4d:37:7b:13:46:33:12:2d:b6:8c:3c:13:07:e0:a5
        Signature Algorithm: sha256WithRSAEncryption
        Issuer: CN=OV Code Signing CA, OU=CA, O=Example Co, C=US
        Validity
            Not Before: Jun 15 04:38:41 2026 GMT
            Not After : Jun 15 04:38:41 2027 GMT
        Subject: CN=Example Co, O=Example Co, L=Mountain View, C=US, jurisdictionC=US, businessCategory=Private Organization
        Subject Public Key Info:
            Public Key Algorithm: rsaEncryption
                Public-Key: (3072 bit)
                Modulus:
                    00:b6:20:0b:15:db:29:c8:20:3f:b4:62:d9:81:80:
                    e1:da:e6:48:86:72:8e:66:0b:6c:66:4c:5c:01:28:
                    e4:3a:85:db:42:67:f4:54:b8:b8:f8:79:b2:43:60:
                    71:02:78:4b:d8:83:6c:85:dd:c0:bc:34:97:43:65:
                    98:a4:bd:7d:07:97:06:45:0e:51:b4:98:f2:88:1d:
                    27:b4:f5:5e:16:b2:3f:cd:06:23:20:02:48:a8:1c:
                    1a:a0:0e:47:05:dd:4e:7e:18:c9:c4:9c:89:76:21:
                    ec:02:d5:00:97:51:d0:92:75:ca:08:ad:81:ba:4a:
                    73:18:ca:22:0d:e5:d8:f4:52:8f:28:13:30:71:62:
                    97:2c:cd:34:92:d4:40:5b:c4:7b:b4:be:4f:08:bc:
                    87:aa:83:ba:74:13:57:a7:de:ad:ca:f2:95:52:58:
                    35:4a:28:0d:80:51:48:e0:fc:0e:fd:a5:11:bb:a4:
                    d2:4e:50:8b:d7:32:ef:3c:08:54:09:89:d9:86:ed:
                    97:5c:1e:c6:c7:7b:c7:fa:10:ae:a3:c2:0f:71:9a:
                    50:8c:ba:9e:1a:09:c1:4e:63:c6:b8:7e:65:83:56:
                    31:2a:73:77:62:4e:16:5b:25:f9:a5:e3:16:96:37:
                    53:65:e9:ff:0e:d6:3a:03:73:2e:17:a6:d4:9a:32:
                    fd:52:96:54:23:2e:9e:d2:6e:d4:7e:92:7d:73:69:
                    f9:6e:23:2e:92:c4:dc:2f:f7:d0:f2:24:ae:77:21:
                    4e:82:f2:ca:19:09:99:b9:ed:4f:64:b2:68:7d:60:
                    fb:6f:7b:31:e3:5e:54:c2:dc:47:88:38:dc:c4:d8:
                    f0:2d:f5:a0:62:a4:8d:63:9c:d1:f3:8b:2c:cb:04:
                    4b:a2:c8:e3:61:a0:dc:60:48:b1:73:b8:5d:dc:d6:
                    5a:88:35:51:e8:c4:87:c8:11:09:35:bd:42:f1:95:
                    44:75:07:cb:cb:b5:68:5e:a8:55:69:61:94:e5:4a:
                    44:f2:a3:52:ef:68:e7:6d:55:ed
                Exponent: 65537 (0x10001)
        X509v3 extensions:
            X509v3 Key Usage: critical
                Digital Signature
            X509v3 Extended Key Usage: 
                Code Signing
            X509v3 Basic Constraints: critical
                CA:FALSE
            X509v3 Subject Key Identifier: 
                90:B4:83:2D:15:B4:F1:22:8F:E6:22:6A:4C:99:03:28:17:EE:E0:F1
            X509v3 Authority Key Identifier: 
                E1:F4:64:D7:86:45:55:DD:34:2E:85:99:16:99:46:67:09:FA:59:D4
            Authority Information Access: 
                OCSP - URI:http://ocsp.example.com
                CA Issuers - URI:http://example.com/ca1.crt
            X509v3 Certificate Policies: 
                Policy: 2.23.140.1.4.1
            X509v3 CRL Distribution Points: 
                Full Name:
                  URI:http://crl1.example.com/ca1.crl

                Full Name:
                  URI:http://crl2.example.com/ca1.crl

            CT Precertificate SCTs: 
                Signed Certificate Timestamp:
                    Version   : v1 (0x0)
                    Log ID    : C4:69:28:BC:87:DE:23:B9:A8:BD:23:5A:A1:FE:67:CC:
                                B1:54:2C:83:89:AD:3F:02:BF:4A:B5:CF:F5:06:E9:8F
                    Timestamp : Jan 15 06:56:07.890 1970 GMT
                    Extensions: none
                    Signature : ecdsa-with-SHA256
                                73:69:67:6E:61:74:75:72:65:31
                Signed Certificate Timestamp:
                    Version   : v1 (0x0)
                    Log ID    : 73:AA:A5:07:1D:9F:86:15:50:D5:14:69:CB:D8:9E:0A:
                                6E:53:71:48:6F:D9:4C:96:75:28:1D:1C:EF:BD:51:17
                    Timestamp : Jan 15 06:56:07.891 1970 GMT
                    Extensions: none
                    Signature : ecdsa-with-SHA256
                                73:69:67:6E:61:74:75:72:65:32
    Signature Algorithm: sha256WithRSAEncryption
    Signature Value:
        55:c6:6e:9d:13:c7:2a:07:58:c1:cd:f1:a5:56:da:33:dd:82:
        9f:e0:7d:34:6c:b8:66:9c:14:1f:dd:01:90:9f:8f:cd:b7:7c:
        34:dc:46:a1:ca:6f:18:5b:45:04:32:f8:16:81:2d:76:df:da:
        5d:62:0a:bd:7c:14:23:2e:a4:a1:41:29:3a:76:5f:87:80:7d:
        62:4e:1a:75:4a:f0:47:f8:75:4e:55:93:59:e8:44:1c:a5:f8:
        df:c4:61:40:39:73:0d:f1:88:46:7e:c7:a0:fb:1c:56:05:81:
        08:4b:03:2d:68:c2:ec:7c:4c:d6:33:82:f2:de:2e:84:d0:50:
        fc:53:cc:5e:04:78:24:62:4a:f1:37:87:d3:f2:06:f7:42:3a:
        72:c3:dc:2d:46:da:68:fc:57:f8:f9:31:56:03:e5:57:a1:4c:
        19:57:1e:fc:89:94:4f:8f:30:be:cf:0a:47:d3:dd:91:d3:2d:
        fe:66:53:ba:e2:7c:b5:f3:80:c4:d0:11:f6:d1:4b:80:e0:a0:
        9d:93:fd:e9:52:10:df:b1:09:7d:51:33:39:eb:f9:6c:c0:b3:
        18:55:0e:f9:7d:36:6c:5f:1f:e7:7d:14:2a:99:7e:f5:04:b9:
        9c:c8:c8:95:9a:9a:5a:7e:b6:1c:81:9b:af:dc:65:56:24:66:
        b3:79:19:65:e1:cd:87:22:5e:67:66:29:54:5d:f7:26:0a:71:
        9d:ee:d8:de:d2:b5:d2:9a:84:79:25:a8:13:be:ca:90:36:55:
        36:10:b5:f6:ad:58:fb:f8:0e:09:26:90:d5:f4:db:cd:83:0a:
        bb:69:34:fa:a2:34:d5:c1:31:79:3a:13:7b:2e:2a:23:52:36:
        e4:00:d8:12:e5:42:75:d5:9d:ce:08:18:fe:fb:89:23:60:df:
        a5:54:a5:6c:c0:ec:a6:be:91:27:c9:2f:e5:cb:26:c5:c5:95:
        bb:67:fc:c6:ce:71:6b:14:75:c3:96:e7:24:da:c7:7c:20:97:
        06:b0:34:dc:64:5b
-----BEGIN CERTIFICATE-----
MIIGKjCCBJKgAwIBAgIRANhNN3sTRjMSLbaMPBMH4KUwDQYJKoZIhvcNAQELBQAw
TDEbMBkGA1UEAxMST1YgQ29kZSBTaWduaW5nIENBMQswCQYDVQQLEwJDQTETMBEG
A1UEChMKRXhhbXBsZSBDbzELMAkGA1UEBhMCVVMwHhcNMjYwNjE1MDQzODQxWhcN
MjcwNjE1MDQzODQxWjCBgzETMBEGA1UEAxMKRXhhbXBsZSBDbzETMBEGA1UEChMK
RXhhbXBsZSBDbzEWMBQGA1UEBxMNTW91bnRhaW4gVmlldzELMAkGA1UEBhMCVVMx
EzARBgsrBgEEAYI3PAIBAxMCVVMxHTAbBgNVBA8TFFByaXZhdGUgT3JnYW5pemF0
aW9uMIIBojANBgkqhkiG9w0BAQEFAAOCAY8AMIIBigKCAYEAtiALFdspyCA/tGLZ
gYDh2uZIhnKOZgtsZkxcASjkOoXbQmf0VLi4+HmyQ2BxAnhL2INshd3AvDSXQ2WY
pL19B5cGRQ5RtJjyiB0ntPVeFrI/zQYjIAJIqBwaoA5HBd1OfhjJxJyJdiHsAtUA
l1HQknXKCK2BukpzGMoiDeXY9FKPKBMwcWKXLM00ktRAW8R7tL5PCLyHqoO6dBNX
p96tyvKVUlg1SigNgFFI4PwO/aURu6TSTlCL1zLvPAhUCYnZhu2XXB7Gx3vH+hCu
o8IPcZpQjLqeGgnBTmPGuH5lg1YxKnN3Yk4WWyX5peMWljdTZen/DtY6A3MuF6bU
mjL9UpZUIy6e0m7UfpJ9c2n5biMuksTcL/fQ8iSudyFOgvLKGQmZue1PZLJofWD7
b3sx415UwtxHiDjcxNjwLfWgYqSNY5zR84ssywRLosjjYaDcYEixc7hd3NZaiDVR
6MSHyBEJNb1C8ZVEdQfLy7VoXqhVaWGU5UpE8qNS72jnbVXtAgMBAAGjggHNMIIB
yTAOBgNVHQ8BAf8EBAMCB4AwEwYDVR0lBAwwCgYIKwYBBQUHAwMwDAYDVR0TAQH/
BAIwADAdBgNVHQ4EFgQUkLSDLRW08SKP5iJqTJkDKBfu4PEwHwYDVR0jBBgwFoAU
4fRk14ZFVd00LoWZFplGZwn6WdQwWwYIKwYBBQUHAQEETzBNMCMGCCsGAQUFBzAB
hhdodHRwOi8vb2NzcC5leGFtcGxlLmNvbTAmBggrBgEFBQcwAoYaaHR0cDovL2V4
YW1wbGUuY29tL2NhMS5jcnQwEwYDVR0gBAwwCjAIBgZngQwBBAEwVwYDVR0fBFAw
TjAloCOgIYYfaHR0cDovL2NybDEuZXhhbXBsZS5jb20vY2ExLmNybDAloCOgIYYf
aHR0cDovL2NybDIuZXhhbXBsZS5jb20vY2ExLmNybDCBiAYKKwYBBAHWeQIEAgR6
BHgAdgA5AMRpKLyH3iO5qL0jWqH+Z8yxVCyDia0/Ar9Ktc/1BumPAAAAAEmWAtIA
AAQDAApzaWduYXR1cmUxADkAc6qlBx2fhhVQ1RRpy9ieCm5TcUhv2UyWdSgdHO+9
URcAAAAASZYC0wAABAMACnNpZ25hdHVyZTIwDQYJKoZIhvcNAQELBQADggGBAFXG
bp0TxyoHWMHN8aVW2jPdgp/gfTRsuGacFB/dAZCfj823fDTcRqHKbxhbRQQy+BaB
LXbf2l1iCr18FCMupKFBKTp2X4eAfWJOGnVK8Ef4dU5Vk1noRByl+N/EYUA5cw3x
iEZ+x6D7HFYFgQhLAy1owux8TNYzgvLeLoTQUPxTzF4EeCRiSvE3h9PyBvdCOnLD
3C1G2mj8V/j5MVYD5VehTBlXHvyJlE+PML7PCkfT3ZHTLf5mU7rifLXzgMTQEfbR
S4DgoJ2T/elSEN+xCX1RMznr+WzAsxhVDvl9NmxfH+d9FCqZfvUEuZzIyJWamlp+
thyBm6/cZVYkZrN5GWXhzYciXmdmKVRd9yYKcZ3u2N7StdKahHklqBO+ypA2VTYQ
tfatWPv4DgkmkNX0282DCrtpNPqiNNXBMXk6E3suKiNSNuQA2BLlQnXVnc4IGP77
iSNg36VUpWzA7Ka+kSfJL+XLJsXFlbtn/MbOcWsUdcOW5yTax3wglwawNNxkWw==
-----END CERTIFICATE-----
