Certificate:
    Data:
        Version: 3 (0x2)
        Serial Number:
            cf:12:49:92:fe:ec:d8:02:13:bc:35:fa:6f:30:df:0d
        Signature Algorithm: sha256WithRSAEncryption
        Issuer: CN=OV Code Signing CA, OU=CA, O=Example Co, C=US
        Validity
            Not Before: Jun 15 04:45:24 2026 GMT
            Not After : Jun 15 04:45:24 2027 GMT
        Subject: CN=Example Co, O=Example Co, C=US, jurisdictionC=US, businessCategory=Private Organization
        Subject Public Key Info:
            Public Key Algorithm: rsaEncryption
                Public-Key: (3072 bit)
                Modulus:
                    00:b0:20:ba:08:be:7d:60:11:07:cf:a3:7b:7a:94:
                    9a:19:b4:c2:5c:a4:ed:22:90:03:ee:6f:fc:67:b5:
                    92:b8:ab:9a:b2:1b:8a:ca:ce:98:24:d4:dd:27:07:
                    57:bb:65:ae:71:dc:13:3a:b5:bd:af:35:73:ef:75:
                    da:77:c7:87:b6:62:da:87:1b:28:5d:0c:bb:82:bf:
                    1d:de:27:85:f9:8e:5d:27:75:e8:a1:da:7f:89:ea:
                    0d:65:78:f2:40:18:ae:ad:2b:0d:e0:a4:9d:48:e3:
                    08:e6:92:6d:bb:3e:02:c3:59:69:96:42:0e:f9:bf:
                    d6:36:fd:ed:c3:95:a5:02:20:46:7d:ce:98:81:a7:
                    4d:f7:5d:fe:50:dc:58:e5:41:99:6f:cc:a3:78:f5:
                    8f:28:24:05:ff:4d:9f:9b:c7:f6:d3:e5:df:37:e4:
                    a8:c4:8e:2d:6d:b2:c7:32:47:ac:0e:a3:3c:b7:0f:
                    75:fc:d3:53:2c:80:cc:60:71:83:a7:b3:44:0a:ad:
                    f8:a9:15:ea:3c:7b:51:4a:4c:52:00:e7:98:3c:83:
                    d1:f7:ce:89:8a:25:87:b5:15:ec:e9:5c:d5:cf:9f:
                    f1:75:24:e1:40:ba:16:2f:19:01:02:35:a3:0d:62:
                    09:ac:bf:fc:82:30:23:f3:31:97:b8:fc:69:6b:d7:
                    05:b0:23:0d:b2:21:7f:9f:96:87:d3:ee:2b:5b:cd:
                    3e:cb:df:7d:69:d7:a4:c1:6b:0e:6c:9f:21:b7:7d:
                    98:cc:10:67:ce:65:26:a0:c9:2e:12:8e:bf:10:5c:
                    80:38:f3:e7:b1:d3:70:a9:fb:ba:ad:e8:6d:2e:fa:
                    c8:13:a8:a9:46:cc:7b:fa:a0:e2:9a:4b:93:2f:81:
                    54:86:73:0b:e2:0a:4e:b9:60:79:ff:a2:b6:c9:de:
                    f5:fb:70:15:78:91:ba:ae:15:0c:a8:6f:77:58:be:
                    c9:90:06:20:79:44:98:3c:c3:a1:0d:2c:4d:e0:a3:
                    c5:64:70:3d:00:c9:ae:1a:ba:4f
                Exponent: 65537 (0x10001)
        X509v3 extensions:
            X509v3 Key Usage: critical
                Digital Signature
            X509v3 Extended Key Usage: 
                Code Signing
            X509v3 Basic Constraints: critical
                CA:FALSE
            X509v3 Subject Key Identifier: 
                D6:5C:45:B0:BF:92:13:82:BB:EE:D5:CC:D1:F4:78:93:AD:CE:3A:54
            X509v3 Authority Key Identifier: 
                5B:04:B3:58:CC:F8:0D:66:C4:0B:92:20:3F:B1:F7:1D:35:6C:31:4C
            Authority Information Access: 
                OCSP - URI:http://ocsp.example.com
                CA Issuers - URI:http://example.com/ca1.crt
            X509v3 Certificate Policies: 
                Policy: 2.23.140.1.4.1
            X509v3 CRL Distribution Points: 
                Full Name:
                  URI:http://crl1.example.com/ca1.crl

                Full Name:
                  URI:http://crl2.example.com/ca1.crl

            CT Precertificate SCTs: 
                Signed Certificate Timestamp:
                    Version   : v1 (0x0)
                    Log ID    : C4:69:28:BC:87:DE:23:B9:A8:BD:23:5A:A1:FE:67:CC:
                                B1:54:2C:83:89:AD:3F:02:BF:4A:B5:CF:F5:06:E9:8F
                    Timestamp : Jan 15 06:56:07.890 1970 GMT
                    Extensions: none
                    Signature : ecdsa-with-SHA256
                                73:69:67:6E:61:74:75:72:65:31
                Signed Certificate Timestamp:
                    Version   : v1 (0x0)
                    Log ID    : 73:AA:A5:07:1D:9F:86:15:50:D5:14:69:CB:D8:9E:0A:
                                6E:53:71:48:6F:D9:4C:96:75:28:1D:1C:EF:BD:51:17
                    Timestamp : Jan 15 06:56:07.891 1970 GMT
                    Extensions: none
                    Signature : ecdsa-with-SHA256
                                73:69:67:6E:61:74:75:72:65:32
    Signature Algorithm: sha256WithRSAEncryption
    Signature Value:
        ab:b3:9e:c5:78:bd:f0:aa:c6:23:b7:fc:20:7e:f1:e8:41:f6:
        22:1c:1a:0d:d7:61:21:9d:e5:b9:4a:6c:57:2d:c9:2f:1f:9e:
        71:ab:4d:00:f5:35:d7:71:4b:f7:b8:0c:a8:15:bf:cd:f9:fa:
        44:02:d0:67:fd:70:27:6b:85:05:9b:00:02:38:58:66:12:58:
        ad:9f:72:8c:9a:58:83:31:2c:bc:cd:26:a0:bd:41:fd:f0:1d:
        45:46:ac:bd:4a:71:d6:28:da:e8:b4:06:0d:73:b6:6b:96:ca:
        c6:6f:18:82:85:f4:b1:36:aa:4d:7f:7a:1b:d3:8d:fa:21:af:
        72:e9:f9:2c:10:bc:10:21:50:df:ee:ef:28:ad:cd:8e:a7:aa:
        37:e4:10:f5:3d:e5:b3:a7:9a:ef:bf:72:ef:6c:7b:ee:53:f5:
        8f:4b:1c:4d:c4:26:0c:65:d9:c1:80:66:36:eb:6e:0d:10:4e:
        fd:ae:8f:97:a7:57:a1:96:83:1e:e6:78:4a:4e:83:d2:ad:b0:
        e6:f2:73:63:24:95:0d:11:88:e5:9e:c6:d8:5b:f0:2c:b3:d3:
        01:8f:6b:15:4b:59:2c:5e:1f:06:d4:e6:1f:f0:fb:aa:d9:4b:
        46:21:d1:54:08:d9:22:c5:b2:8d:fa:1e:1f:1c:a0:d3:77:c4:
        be:e8:b7:96:f5:ec:73:e2:de:25:f7:70:32:c7:87:76:a7:39:
        ad:e4:64:ef:dd:0c:a7:0c:4b:ba:4b:bc:9d:bf:d1:c1:92:6c:
        29:95:65:49:9f:c0:37:f1:ae:3b:40:11:4e:71:5c:18:f0:c5:
        0c:7f:85:75:71:38:0c:1a:ea:7e:5a:0c:1d:be:65:ca:39:46:
        3a:87:16:3c:b3:ba:0a:e5:9a:aa:39:9c:da:3c:f8:b9:31:67:
        f1:59:e3:2f:81:a2:f9:da:d8:1e:98:6b:fc:4f:d0:e0:8e:56:
        5b:de:44:51:37:fd:05:60:24:13:2d:2f:6c:8f:9e:bf:0d:98:
        65:e0:b9:04:8b:16
-----BEGIN CERTIFICATE-----
MIIGETCCBHmgAwIBAgIRAM8SSZL+7NgCE7w1+m8w3w0wDQYJKoZIhvcNAQELBQAw
TDEbMBkGA1UEAxMST1YgQ29kZSBTaWduaW5nIENBMQswCQYDVQQLEwJDQTETMBEG
A1UEChMKRXhhbXBsZSBDbzELMAkGA1UEBhMCVVMwHhcNMjYwNjE1MDQ0NTI0WhcN
MjcwNjE1MDQ0NTI0WjBrMRMwEQYDVQQDEwpFeGFtcGxlIENvMRMwEQYDVQQKEwpF
eGFtcGxlIENvMQswCQYDVQQGEwJVUzETMBEGCysGAQQBgjc8AgEDEwJVUzEdMBsG
A1UEDxMUUHJpdmF0ZSBPcmdhbml6YXRpb24wggGiMA0GCSqGSIb3DQEBAQUAA4IB
jwAwggGKAoIBgQCwILoIvn1gEQfPo3t6lJoZtMJcpO0ikAPub/xntZK4q5qyG4rK
zpgk1N0nB1e7Za5x3BM6tb2vNXPvddp3x4e2YtqHGyhdDLuCvx3eJ4X5jl0ndeih
2n+J6g1lePJAGK6tKw3gpJ1I4wjmkm27PgLDWWmWQg75v9Y2/e3DlaUCIEZ9zpiB
p033Xf5Q3FjlQZlvzKN49Y8oJAX/TZ+bx/bT5d835KjEji1tsscyR6wOozy3D3X8
01MsgMxgcYOns0QKrfipFeo8e1FKTFIA55g8g9H3zomKJYe1FezpXNXPn/F1JOFA
uhYvGQECNaMNYgmsv/yCMCPzMZe4/Glr1wWwIw2yIX+flofT7itbzT7L331p16TB
aw5snyG3fZjMEGfOZSagyS4Sjr8QXIA48+ex03Cp+7qt6G0u+sgTqKlGzHv6oOKa
S5MvgVSGcwviCk65YHn/orbJ3vX7cBV4kbquFQyob3dYvsmQBiB5RJg8w6ENLE3g
o8VkcD0Aya4auk8CAwEAAaOCAc0wggHJMA4GA1UdDwEB/wQEAwIHgDATBgNVHSUE
DDAKBggrBgEFBQcDAzAMBgNVHRMBAf8EAjAAMB0GA1UdDgQWBBTWXEWwv5ITgrvu
1czR9HiTrc46VDAfBgNVHSMEGDAWgBRbBLNYzPgNZsQLkiA/sfcdNWwxTDBbBggr
BgEFBQcBAQRPME0wIwYIKwYBBQUHMAGGF2h0dHA6Ly9vY3NwLmV4YW1wbGUuY29t
MCYGCCsGAQUFBzAChhpodHRwOi8vZXhhbXBsZS5jb20vY2ExLmNydDATBgNVHSAE
DDAKMAgGBmeBDAEEATBXBgNVHR8EUDBOMCWgI6Ahhh9odHRwOi8vY3JsMS5leGFt
cGxlLmNvbS9jYTEuY3JsMCWgI6Ahhh9odHRwOi8vY3JsMi5leGFtcGxlLmNvbS9j
YTEuY3JsMIGIBgorBgEEAdZ5AgQCBHoEeAB2ADkAxGkovIfeI7movSNaof5nzLFU
LIOJrT8Cv0q1z/UG6Y8AAAAASZYC0gAABAMACnNpZ25hdHVyZTEAOQBzqqUHHZ+G
FVDVFGnL2J4KblNxSG/ZTJZ1KB0c771RFwAAAABJlgLTAAAEAwAKc2lnbmF0dXJl
MjANBgkqhkiG9w0BAQsFAAOCAYEAq7OexXi98KrGI7f8IH7x6EH2IhwaDddhIZ3l
uUpsVy3JLx+ecatNAPU113FL97gMqBW/zfn6RALQZ/1wJ2uFBZsAAjhYZhJYrZ9y
jJpYgzEsvM0moL1B/fAdRUasvUpx1ija6LQGDXO2a5bKxm8YgoX0sTaqTX96G9ON
+iGvcun5LBC8ECFQ3+7vKK3NjqeqN+QQ9T3ls6ea779y72x77lP1j0scTcQmDGXZ
wYBmNutuDRBO/a6Pl6dXoZaDHuZ4Sk6D0q2w5vJzYySVDRGI5Z7G2FvwLLPTAY9r
FUtZLF4fBtTmH/D7qtlLRiHRVAjZIsWyjfoeHxyg03fEvui3lvXsc+LeJfdwMseH
dqc5reRk790MpwxLuku8nb/RwZJsKZVlSZ/AN/GuO0ARTnFcGPDFDH+FdXE4DBrq
floMHb5lyjlGOocWPLO6CuWaqjmc2jz4uTFn8VnjL4Gi+drYHphr/E/Q4I5WW95E
UTf9BWAkEy0vbI+evw2YZeC5BIsW
-----END CERTIFICATE-----
