Certificate:
    Data:
        Version: 3 (0x2)
        Serial Number:
            38:4b:1b:dd:aa:ab:59:6f:27:4b:08:f0:f0:f5:fd:93
        Signature Algorithm: sha256WithRSAEncryption
        Issuer: CN=OV Code Signing CA, OU=CA, O=Example Co, C=US
        Validity
            Not Before: Jun 14 17:50:42 2026 GMT
            Not After : Jun 14 17:50:42 2027 GMT
        Subject: CN=Example Co, O=Example Co, L=Mountain View, ST=California, C=US, jurisdictionC=US, businessCategory=Private Organization
        Subject Public Key Info:
            Public Key Algorithm: rsaEncryption
                Public-Key: (3072 bit)
                Modulus:
                    00:e5:f4:42:d5:2a:15:aa:e2:61:6e:f8:75:dd:3a:
                    a6:a1:9a:5e:89:96:78:43:a4:ee:8f:63:d7:a2:60:
                    93:a2:fb:43:78:93:72:15:a5:89:84:52:fb:fe:c0:
                    75:f0:d4:76:47:e0:f4:f4:0d:48:0f:a9:30:8b:38:
                    9b:ff:7c:95:f5:40:b4:78:62:6e:d4:92:e7:a8:4d:
                    03:53:39:20:ec:e8:50:8f:53:f6:89:6e:b4:7a:f9:
                    56:7e:e9:d8:a7:9d:4f:53:60:ce:14:ef:60:3a:34:
                    9f:c1:97:f5:11:1f:99:2c:35:96:14:42:6f:93:51:
                    7b:a8:d4:e0:99:2c:82:1d:f7:76:76:fb:4f:3c:35:
                    df:4f:f1:18:b8:bd:ad:45:7b:7e:fb:91:92:a4:66:
                    77:50:db:0c:cf:49:b0:9c:d9:5d:86:0d:68:b6:5c:
                    a2:11:56:7b:90:e2:ee:5c:37:bc:a3:3e:da:27:65:
                    49:f4:c8:34:cc:69:a7:ec:57:cd:c1:fe:21:6a:6c:
                    80:eb:06:ea:a6:d0:e9:47:8e:21:e3:bd:8f:89:c6:
                    e0:51:8a:bb:e8:74:33:60:fc:c4:3a:0f:87:e1:be:
                    c2:7a:18:63:15:6a:ad:db:ad:1f:55:99:fe:73:fc:
                    dc:aa:ee:9f:33:ca:a8:d2:6a:26:fc:cb:7f:eb:5b:
                    3a:c1:56:f3:d6:51:55:1f:7c:a4:0a:c0:26:64:fe:
                    28:95:59:74:f4:b1:c3:ba:59:76:ca:e9:b2:f5:a5:
                    2a:db:48:00:d2:68:04:0e:a1:3f:b1:09:2d:4d:df:
                    1d:01:64:81:af:de:86:6a:11:79:c8:8e:aa:e4:91:
                    e4:75:8b:a2:76:bb:98:ae:ce:f6:c9:50:06:b1:79:
                    96:bd:07:8d:b4:61:69:5b:31:d0:18:d1:4e:13:4c:
                    f1:1b:89:e8:cc:72:a5:1e:b4:f3:89:12:3f:1e:38:
                    6a:31:3c:3b:d1:5e:08:14:b6:2a:df:84:5e:72:d9:
                    35:d8:64:d9:35:a5:3c:82:47:cd
                Exponent: 65537 (0x10001)
        X509v3 extensions:
            X509v3 Key Usage: critical
                Digital Signature
            X509v3 Extended Key Usage: 
                Code Signing
            X509v3 Basic Constraints: critical
                CA:FALSE
            X509v3 Subject Key Identifier: 
                1D:4C:A6:9C:02:9D:3C:D2:76:AC:41:A2:CA:86:79:A3:CE:D5:56:38
            X509v3 Authority Key Identifier: 
                5C:05:86:4B:DC:2B:D1:8D:37:D4:CC:F2:01:CA:ED:E7:62:01:8A:DE
            Authority Information Access: 
                OCSP - URI:http://ocsp.example.com
                CA Issuers - URI:http://example.com/ca1.crt
            X509v3 Certificate Policies: 
                Policy: 2.23.140.1.4.1
            X509v3 CRL Distribution Points: 
                Full Name:
                  URI:http://crl1.example.com/ca1.crl

                Full Name:
                  URI:http://crl2.example.com/ca1.crl

            CT Precertificate SCTs: 
                Signed Certificate Timestamp:
                    Version   : v1 (0x0)
                    Log ID    : C4:69:28:BC:87:DE:23:B9:A8:BD:23:5A:A1:FE:67:CC:
                                B1:54:2C:83:89:AD:3F:02:BF:4A:B5:CF:F5:06:E9:8F
                    Timestamp : Jan 15 06:56:07.890 1970 GMT
                    Extensions: none
                    Signature : ecdsa-with-SHA256
                                73:69:67:6E:61:74:75:72:65:31
                Signed Certificate Timestamp:
                    Version   : v1 (0x0)
                    Log ID    : 73:AA:A5:07:1D:9F:86:15:50:D5:14:69:CB:D8:9E:0A:
                                6E:53:71:48:6F:D9:4C:96:75:28:1D:1C:EF:BD:51:17
                    Timestamp : Jan 15 06:56:07.891 1970 GMT
                    Extensions: none
                    Signature : ecdsa-with-SHA256
                                73:69:67:6E:61:74:75:72:65:32
    Signature Algorithm: sha256WithRSAEncryption
    Signature Value:
        70:1a:ab:2a:46:b8:90:a6:c2:58:00:d6:e8:80:2f:a9:36:2b:
        2d:ce:6f:6a:fa:05:d0:ef:c8:97:44:e2:0e:63:ef:a2:e6:72:
        5f:18:68:b2:ee:fe:50:e4:04:6d:ef:82:db:1e:f0:2f:1d:30:
        de:32:06:f5:b1:af:36:3c:51:e6:97:47:9f:9e:9e:ac:22:59:
        3e:eb:27:1d:86:2b:a9:dc:27:eb:21:7a:0a:27:75:b5:3a:9f:
        2b:36:eb:37:0c:e9:82:75:99:db:1f:d8:2e:29:71:90:17:bc:
        65:38:e1:22:35:a4:df:4a:0a:ff:8c:a5:a7:0e:7b:89:0f:06:
        a3:77:10:ef:e5:ff:f5:4e:19:96:6f:68:57:42:21:cb:6f:30:
        8c:8f:26:c1:c2:ec:03:31:80:90:af:ff:24:00:c0:1c:b4:97:
        ea:1c:40:f1:11:8d:5a:bf:75:ed:64:a5:ff:90:97:df:df:76:
        8d:11:2b:38:08:ce:ba:1d:09:42:ec:4a:01:ba:a1:0b:a7:db:
        31:94:b9:48:28:9a:fc:81:3e:c0:ed:7b:37:26:1c:46:91:66:
        3c:18:8f:1e:0a:a8:34:6c:bd:71:cc:ff:a3:ac:5e:93:48:8c:
        2c:fe:57:53:b5:41:1b:cd:07:05:ec:8b:fc:2c:b2:ab:5a:c6:
        f6:ea:b6:09:6a:9a:4c:6c:8a:43:7f:da:6b:bb:c2:9a:dc:f0:
        3e:38:3d:5c:16:bc:a3:ab:31:a6:8e:8d:39:2c:05:35:44:49:
        cb:c4:a3:04:d4:d5:f6:7e:8d:5f:89:f3:93:8c:9d:7f:c9:c7:
        8d:72:b9:e3:1c:23:13:d9:44:49:4a:6f:fd:ad:68:48:80:ea:
        90:de:af:c7:fa:f2:18:48:36:f2:f2:e9:f0:1c:f9:64:11:5f:
        9e:0a:a6:22:2a:8b:dc:c1:db:6f:f0:d2:9e:00:a0:ce:e7:03:
        dd:3b:40:41:84:d0:a9:81:57:35:7c:71:aa:36:75:d0:14:59:
        b3:32:c3:0c:4f:aa
-----BEGIN CERTIFICATE-----
MIIGPjCCBKagAwIBAgIQOEsb3aqrWW8nSwjw8PX9kzANBgkqhkiG9w0BAQsFADBM
MRswGQYDVQQDExJPViBDb2RlIFNpZ25pbmcgQ0ExCzAJBgNVBAsTAkNBMRMwEQYD
VQQKEwpFeGFtcGxlIENvMQswCQYDVQQGEwJVUzAeFw0yNjA2MTQxNzUwNDJaFw0y
NzA2MTQxNzUwNDJaMIGYMRMwEQYDVQQDEwpFeGFtcGxlIENvMRMwEQYDVQQKEwpF
eGFtcGxlIENvMRYwFAYDVQQHEw1Nb3VudGFpbiBWaWV3MRMwEQYDVQQIEwpDYWxp
Zm9ybmlhMQswCQYDVQQGEwJVUzETMBEGCysGAQQBgjc8AgEDEwJVUzEdMBsGA1UE
DxMUUHJpdmF0ZSBPcmdhbml6YXRpb24wggGiMA0GCSqGSIb3DQEBAQUAA4IBjwAw
ggGKAoIBgQDl9ELVKhWq4mFu+HXdOqahml6JlnhDpO6PY9eiYJOi+0N4k3IVpYmE
Uvv+wHXw1HZH4PT0DUgPqTCLOJv/fJX1QLR4Ym7UkueoTQNTOSDs6FCPU/aJbrR6
+VZ+6dinnU9TYM4U72A6NJ/Bl/URH5ksNZYUQm+TUXuo1OCZLIId93Z2+088Nd9P
8Ri4va1Fe377kZKkZndQ2wzPSbCc2V2GDWi2XKIRVnuQ4u5cN7yjPtonZUn0yDTM
aafsV83B/iFqbIDrBuqm0OlHjiHjvY+JxuBRirvodDNg/MQ6D4fhvsJ6GGMVaq3b
rR9Vmf5z/Nyq7p8zyqjSaib8y3/rWzrBVvPWUVUffKQKwCZk/iiVWXT0scO6WXbK
6bL1pSrbSADSaAQOoT+xCS1N3x0BZIGv3oZqEXnIjqrkkeR1i6J2u5iuzvbJUAax
eZa9B420YWlbMdAY0U4TTPEbiejMcqUetPOJEj8eOGoxPDvRXggUtirfhF5y2TXY
ZNk1pTyCR80CAwEAAaOCAc0wggHJMA4GA1UdDwEB/wQEAwIHgDATBgNVHSUEDDAK
BggrBgEFBQcDAzAMBgNVHRMBAf8EAjAAMB0GA1UdDgQWBBQdTKacAp080nasQaLK
hnmjztVWODAfBgNVHSMEGDAWgBRcBYZL3CvRjTfUzPIByu3nYgGK3jBbBggrBgEF
BQcBAQRPME0wIwYIKwYBBQUHMAGGF2h0dHA6Ly9vY3NwLmV4YW1wbGUuY29tMCYG
CCsGAQUFBzAChhpodHRwOi8vZXhhbXBsZS5jb20vY2ExLmNydDATBgNVHSAEDDAK
MAgGBmeBDAEEATBXBgNVHR8EUDBOMCWgI6Ahhh9odHRwOi8vY3JsMS5leGFtcGxl
LmNvbS9jYTEuY3JsMCWgI6Ahhh9odHRwOi8vY3JsMi5leGFtcGxlLmNvbS9jYTEu
Y3JsMIGIBgorBgEEAdZ5AgQCBHoEeAB2ADkAxGkovIfeI7movSNaof5nzLFULIOJ
rT8Cv0q1z/UG6Y8AAAAASZYC0gAABAMACnNpZ25hdHVyZTEAOQBzqqUHHZ+GFVDV
FGnL2J4KblNxSG/ZTJZ1KB0c771RFwAAAABJlgLTAAAEAwAKc2lnbmF0dXJlMjAN
BgkqhkiG9w0BAQsFAAOCAYEAcBqrKka4kKbCWADW6IAvqTYrLc5vavoF0O/Il0Ti
DmPvouZyXxhosu7+UOQEbe+C2x7wLx0w3jIG9bGvNjxR5pdHn56erCJZPusnHYYr
qdwn6yF6Cid1tTqfKzbrNwzpgnWZ2x/YLilxkBe8ZTjhIjWk30oK/4ylpw57iQ8G
o3cQ7+X/9U4Zlm9oV0Ihy28wjI8mwcLsAzGAkK//JADAHLSX6hxA8RGNWr917WSl
/5CX3992jRErOAjOuh0JQuxKAbqhC6fbMZS5SCia/IE+wO17NyYcRpFmPBiPHgqo
NGy9ccz/o6xek0iMLP5XU7VBG80HBeyL/Cyyq1rG9uq2CWqaTGyKQ3/aa7vCmtzw
Pjg9XBa8o6sxpo6NOSwFNURJy8SjBNTV9n6NX4nzk4ydf8nHjXK54xwjE9lESUpv
/a1oSIDqkN6vx/ryGEg28vLp8Bz5ZBFfngqmIiqL3MHbb/DSngCgzucD3TtAQYTQ
qYFXNXxxqjZ10BRZszLDDE+q
-----END CERTIFICATE-----
