Certificate:
    Data:
        Version: 3 (0x2)
        Serial Number:
            af:94:0e:ba:e0:83:09:74:2c:34:5b:00:bc:30:54:e7
        Signature Algorithm: sha256WithRSAEncryption
        Issuer: CN=OV Code Signing CA, OU=CA, O=Example Co, C=US
        Validity
            Not Before: Jun 14 17:58:07 2026 GMT
            Not After : Jun 14 17:58:07 2027 GMT
        Subject: CN=Example Co, L=Mountain View, ST=California, C=US, jurisdictionC=US, businessCategory=Private Organization
        Subject Public Key Info:
            Public Key Algorithm: rsaEncryption
                Public-Key: (3072 bit)
                Modulus:
                    00:c0:f1:4f:66:20:00:db:26:d3:a9:e2:53:f4:09:
                    40:05:6b:b2:92:f8:6c:57:0c:70:47:68:1d:0d:cc:
                    a5:67:b0:63:bc:c3:91:eb:07:cb:0c:de:f4:7d:64:
                    f5:07:b0:a4:ee:d5:7b:ee:3d:b1:57:56:15:0d:d5:
                    2c:81:db:bc:73:10:2c:b4:43:3b:3c:29:5b:fc:39:
                    38:65:86:23:bb:db:f4:04:87:2e:b5:4d:d8:96:12:
                    45:c8:fd:2d:69:ca:af:ae:27:54:f5:33:08:63:ab:
                    0e:32:6c:6c:5d:7f:75:06:5a:5b:0c:0e:1b:bd:0e:
                    54:cd:ca:eb:2f:c8:fc:7e:8c:53:99:a7:5a:d3:25:
                    2a:fb:d3:aa:f9:1d:88:c3:76:f5:77:18:64:95:f0:
                    ac:d8:6a:fc:a0:5a:0b:dd:04:a9:dd:1e:a1:7d:37:
                    1e:f3:27:b8:3c:15:c0:0e:c5:ed:69:a8:58:33:18:
                    b8:b5:a2:40:19:27:53:cb:40:74:82:bd:24:4c:60:
                    b5:bb:17:e6:8b:ff:5b:ae:c4:b9:8c:9a:0a:5a:98:
                    4a:d4:f8:13:44:d8:a2:e4:ed:e4:6a:46:c5:07:17:
                    f6:20:46:89:af:a6:8a:a5:00:33:43:41:a9:4a:57:
                    b0:fe:c0:87:ac:37:b7:33:dd:10:b3:bf:39:12:5a:
                    16:97:56:18:17:fe:6a:b8:8b:d4:27:da:8a:73:41:
                    f9:aa:9f:28:65:77:9f:ce:2e:36:0b:37:a5:56:cd:
                    b5:78:7a:86:7f:87:45:68:5e:0c:2c:0c:dc:1c:1d:
                    d2:6e:8a:2b:88:87:68:fa:a4:42:22:ad:fe:a2:19:
                    a9:4b:4f:02:ac:01:f9:ed:d2:b9:90:c5:c3:3b:f6:
                    16:07:8f:54:dd:82:ec:fa:4e:48:1b:b3:cb:5e:4c:
                    da:64:34:52:9b:7a:33:af:44:99:30:ad:db:a9:66:
                    75:61:84:31:56:7d:9f:e8:04:4d:fc:63:a7:21:78:
                    b7:9f:6c:6e:b0:6c:fc:f0:f7:c7
                Exponent: 65537 (0x10001)
        X509v3 extensions:
            X509v3 Key Usage: critical
                Digital Signature
            X509v3 Extended Key Usage: 
                Code Signing
            X509v3 Basic Constraints: critical
                CA:FALSE
            X509v3 Subject Key Identifier: 
                0B:C7:EA:4F:3D:5C:43:D2:CE:B2:5F:2B:45:3F:94:FC:B6:90:DA:34
            X509v3 Authority Key Identifier: 
                96:A9:1A:01:BF:7D:99:2C:E6:55:20:A9:D1:20:F5:62:A1:13:3C:BB
            Authority Information Access: 
                OCSP - URI:http://ocsp.example.com
                CA Issuers - URI:http://example.com/ca1.crt
            X509v3 Certificate Policies: 
                Policy: 2.23.140.1.4.1
            X509v3 CRL Distribution Points: 
                Full Name:
                  URI:http://crl1.example.com/ca1.crl

                Full Name:
                  URI:http://crl2.example.com/ca1.crl

            CT Precertificate SCTs: 
                Signed Certificate Timestamp:
                    Version   : v1 (0x0)
                    Log ID    : C4:69:28:BC:87:DE:23:B9:A8:BD:23:5A:A1:FE:67:CC:
                                B1:54:2C:83:89:AD:3F:02:BF:4A:B5:CF:F5:06:E9:8F
                    Timestamp : Jan 15 06:56:07.890 1970 GMT
                    Extensions: none
                    Signature : ecdsa-with-SHA256
                                73:69:67:6E:61:74:75:72:65:31
                Signed Certificate Timestamp:
                    Version   : v1 (0x0)
                    Log ID    : 73:AA:A5:07:1D:9F:86:15:50:D5:14:69:CB:D8:9E:0A:
                                6E:53:71:48:6F:D9:4C:96:75:28:1D:1C:EF:BD:51:17
                    Timestamp : Jan 15 06:56:07.891 1970 GMT
                    Extensions: none
                    Signature : ecdsa-with-SHA256
                                73:69:67:6E:61:74:75:72:65:32
    Signature Algorithm: sha256WithRSAEncryption
    Signature Value:
        48:da:b8:72:cf:da:6d:5e:75:dd:f0:d6:69:5f:db:96:5a:99:
        92:9b:2f:24:c9:ea:ed:99:25:4c:80:ca:4b:4a:8e:28:5c:74:
        16:76:6f:96:ac:7a:30:13:78:4a:47:c2:49:c5:cd:f1:9a:14:
        32:51:da:31:15:d9:d2:a3:ef:95:1d:c3:de:6a:27:42:de:39:
        da:9f:cb:47:24:59:22:3b:d4:38:28:5d:0d:56:e2:b9:37:8c:
        49:7e:3d:46:03:f0:fc:ac:4c:a7:3a:29:11:e0:10:a8:95:a0:
        9b:9d:cf:bd:8c:2d:3d:e7:a6:60:60:16:fd:42:e6:b8:37:00:
        1b:06:17:a8:96:28:5f:e9:3c:49:cc:a5:ee:4f:07:af:d4:f1:
        00:24:85:10:9d:b4:4d:8a:5d:05:b0:97:60:be:c4:17:6f:51:
        fd:5b:97:24:e0:0c:f3:98:68:45:e3:ed:a6:a0:86:2f:3f:46:
        bd:dc:9e:f9:03:6f:09:c5:33:7b:92:e9:df:61:36:93:47:5f:
        3c:25:de:f0:b1:bf:52:e7:de:b9:20:d1:a7:a5:50:ca:1f:65:
        41:a9:1f:b1:fa:a8:d3:08:74:1c:66:17:40:1e:eb:e7:c8:32:
        35:31:db:3f:f7:f5:08:5b:0e:61:34:e5:62:ff:b9:11:ad:33:
        2b:30:4f:0e:56:a2:60:11:16:a7:86:d4:33:ad:de:3c:37:58:
        ee:3b:49:fe:12:78:b8:97:85:9b:14:dc:f3:af:2a:b7:59:a8:
        5f:96:c2:84:96:e1:90:c0:fc:e1:e6:37:83:c5:1f:1d:8c:dc:
        f9:2d:73:0c:be:fb:7b:7e:86:73:f6:42:fb:ad:3e:15:6e:c3:
        54:46:16:1d:6b:5c:45:47:bf:2f:b7:c9:9a:24:db:ae:11:54:
        90:c5:d2:bb:1d:fa:a5:ef:27:53:a5:ef:40:dd:f7:e7:1f:a6:
        b6:e1:be:0d:0d:09:b8:d4:a6:1d:f3:68:e3:ad:6d:7c:6c:0d:
        5f:d3:20:74:cf:cf
-----BEGIN CERTIFICATE-----
MIIGKjCCBJKgAwIBAgIRAK+UDrrggwl0LDRbALwwVOcwDQYJKoZIhvcNAQELBQAw
TDEbMBkGA1UEAxMST1YgQ29kZSBTaWduaW5nIENBMQswCQYDVQQLEwJDQTETMBEG
A1UEChMKRXhhbXBsZSBDbzELMAkGA1UEBhMCVVMwHhcNMjYwNjE0MTc1ODA3WhcN
MjcwNjE0MTc1ODA3WjCBgzETMBEGA1UEAxMKRXhhbXBsZSBDbzEWMBQGA1UEBxMN
TW91bnRhaW4gVmlldzETMBEGA1UECBMKQ2FsaWZvcm5pYTELMAkGA1UEBhMCVVMx
EzARBgsrBgEEAYI3PAIBAxMCVVMxHTAbBgNVBA8TFFByaXZhdGUgT3JnYW5pemF0
aW9uMIIBojANBgkqhkiG9w0BAQEFAAOCAY8AMIIBigKCAYEAwPFPZiAA2ybTqeJT
9AlABWuykvhsVwxwR2gdDcylZ7BjvMOR6wfLDN70fWT1B7Ck7tV77j2xV1YVDdUs
gdu8cxAstEM7PClb/Dk4ZYYju9v0BIcutU3YlhJFyP0tacqvridU9TMIY6sOMmxs
XX91BlpbDA4bvQ5UzcrrL8j8foxTmada0yUq+9Oq+R2Iw3b1dxhklfCs2Gr8oFoL
3QSp3R6hfTce8ye4PBXADsXtaahYMxi4taJAGSdTy0B0gr0kTGC1uxfmi/9brsS5
jJoKWphK1PgTRNii5O3kakbFBxf2IEaJr6aKpQAzQ0GpSlew/sCHrDe3M90Qs785
EloWl1YYF/5quIvUJ9qKc0H5qp8oZXefzi42CzelVs21eHqGf4dFaF4MLAzcHB3S
booriIdo+qRCIq3+ohmpS08CrAH57dK5kMXDO/YWB49U3YLs+k5IG7PLXkzaZDRS
m3ozr0SZMK3bqWZ1YYQxVn2f6ARN/GOnIXi3n2xusGz88PfHAgMBAAGjggHNMIIB
yTAOBgNVHQ8BAf8EBAMCB4AwEwYDVR0lBAwwCgYIKwYBBQUHAwMwDAYDVR0TAQH/
BAIwADAdBgNVHQ4EFgQUC8fqTz1cQ9LOsl8rRT+U/LaQ2jQwHwYDVR0jBBgwFoAU
lqkaAb99mSzmVSCp0SD1YqETPLswWwYIKwYBBQUHAQEETzBNMCMGCCsGAQUFBzAB
hhdodHRwOi8vb2NzcC5leGFtcGxlLmNvbTAmBggrBgEFBQcwAoYaaHR0cDovL2V4
YW1wbGUuY29tL2NhMS5jcnQwEwYDVR0gBAwwCjAIBgZngQwBBAEwVwYDVR0fBFAw
TjAloCOgIYYfaHR0cDovL2NybDEuZXhhbXBsZS5jb20vY2ExLmNybDAloCOgIYYf
aHR0cDovL2NybDIuZXhhbXBsZS5jb20vY2ExLmNybDCBiAYKKwYBBAHWeQIEAgR6
BHgAdgA5AMRpKLyH3iO5qL0jWqH+Z8yxVCyDia0/Ar9Ktc/1BumPAAAAAEmWAtIA
AAQDAApzaWduYXR1cmUxADkAc6qlBx2fhhVQ1RRpy9ieCm5TcUhv2UyWdSgdHO+9
URcAAAAASZYC0wAABAMACnNpZ25hdHVyZTIwDQYJKoZIhvcNAQELBQADggGBAEja
uHLP2m1edd3w1mlf25ZamZKbLyTJ6u2ZJUyAyktKjihcdBZ2b5asejATeEpHwknF
zfGaFDJR2jEV2dKj75Udw95qJ0LeOdqfy0ckWSI71DgoXQ1W4rk3jEl+PUYD8Pys
TKc6KRHgEKiVoJudz72MLT3npmBgFv1C5rg3ABsGF6iWKF/pPEnMpe5PB6/U8QAk
hRCdtE2KXQWwl2C+xBdvUf1blyTgDPOYaEXj7aaghi8/Rr3cnvkDbwnFM3uS6d9h
NpNHXzwl3vCxv1Ln3rkg0aelUMofZUGpH7H6qNMIdBxmF0Ae6+fIMjUx2z/39Qhb
DmE05WL/uRGtMyswTw5WomARFqeG1DOt3jw3WO47Sf4SeLiXhZsU3POvKrdZqF+W
woSW4ZDA/OHmN4PFHx2M3Pktcwy++3t+hnP2QvutPhVuw1RGFh1rXEVHvy+3yZok
264RVJDF0rsd+qXvJ1Ol70Dd9+cfprbhvg0NCbjUph3zaOOtbXxsDV/TIHTPzw==
-----END CERTIFICATE-----
