Certificate:
    Data:
        Version: 3 (0x2)
        Serial Number:
            e1:c4:b2:e8:5d:7c:b4:5d:49:28:63:60:20:94:6f:b0
        Signature Algorithm: sha256WithRSAEncryption
        Issuer: CN=OV Code Signing CA, OU=CA, O=Example Co, C=US
        Validity
            Not Before: Jun 15 04:40:59 2026 GMT
            Not After : Jun 15 04:40:59 2027 GMT
        Subject: CN=Example Co, O=Example Co, ST=California, C=US, jurisdictionC=US, businessCategory=Private Organization
        Subject Public Key Info:
            Public Key Algorithm: rsaEncryption
                Public-Key: (3072 bit)
                Modulus:
                    00:b8:c1:b7:41:16:21:33:8c:30:10:60:a8:ec:0c:
                    94:a7:79:8c:83:f2:f3:dc:a3:f8:bd:a0:86:75:cc:
                    0e:7b:4d:a0:a6:13:23:bc:be:c1:3d:a6:b9:e1:49:
                    ff:ff:53:d8:26:2c:ed:36:1f:3a:5a:fb:33:a9:25:
                    8c:58:90:3c:ce:25:6d:3a:f4:21:4f:ff:24:6a:f1:
                    ce:67:97:51:ad:b9:d5:9a:82:2b:ee:42:6e:4c:cc:
                    e9:16:f2:c4:7c:1c:10:c6:3e:14:2a:fa:a6:4b:a2:
                    2a:b6:56:e0:1f:53:8b:4c:4f:b7:17:72:17:48:df:
                    3d:bc:5a:59:ad:a8:ad:d8:76:09:4c:a4:3d:df:30:
                    37:90:f7:d9:b2:cf:5a:5f:b6:ec:48:5d:7d:0c:7a:
                    df:ef:05:2e:17:3a:8c:fa:de:a7:6a:9b:07:32:ee:
                    66:dd:09:55:bd:c7:87:d1:7b:f4:18:28:00:27:01:
                    32:d2:3c:08:f0:5d:58:c7:6c:65:8b:c2:a5:73:f1:
                    73:a7:d3:2b:23:ed:19:21:27:41:7e:a4:a0:28:91:
                    76:99:8a:a0:b3:c3:bb:01:bc:c7:61:5b:9a:a9:2a:
                    30:dd:8e:7d:53:f7:a0:6a:ad:6f:bd:2b:f5:eb:0e:
                    82:4c:19:b2:1f:37:da:1c:94:9b:9f:9d:27:0d:b7:
                    74:e1:87:99:07:57:21:82:39:95:ea:2a:73:86:23:
                    96:42:39:c1:9c:9b:ba:fd:1a:4d:60:7c:8c:19:83:
                    a3:39:dd:5c:a8:b7:62:34:66:5b:8c:b1:c2:2e:f5:
                    38:e4:78:04:8d:98:46:66:b4:fb:50:80:70:1d:9c:
                    a9:6b:1d:a7:08:27:0c:cc:99:00:f2:f7:a7:ce:e1:
                    30:b9:54:14:f0:b9:5c:d6:50:f3:f8:ae:fc:06:6f:
                    79:21:0a:7d:62:33:e3:0a:ca:c6:3a:28:cb:e2:bc:
                    13:7e:ca:cf:91:35:3e:34:98:e2:5e:ab:bf:7a:60:
                    ba:0a:c8:8b:d4:0d:4e:3d:a0:6d
                Exponent: 65537 (0x10001)
        X509v3 extensions:
            X509v3 Key Usage: critical
                Digital Signature
            X509v3 Extended Key Usage: 
                Code Signing
            X509v3 Basic Constraints: critical
                CA:FALSE
            X509v3 Subject Key Identifier: 
                1C:EA:C0:EC:98:8A:FB:1B:AF:CB:AD:10:57:8A:6F:59:3C:DB:84:60
            X509v3 Authority Key Identifier: 
                53:D8:C9:F2:EE:98:66:0A:7E:F1:E3:BF:F7:BD:11:F6:A2:37:5C:10
            Authority Information Access: 
                OCSP - URI:http://ocsp.example.com
                CA Issuers - URI:http://example.com/ca1.crt
            X509v3 Certificate Policies: 
                Policy: 2.23.140.1.4.1
            X509v3 CRL Distribution Points: 
                Full Name:
                  URI:http://crl1.example.com/ca1.crl

                Full Name:
                  URI:http://crl2.example.com/ca1.crl

            CT Precertificate SCTs: 
                Signed Certificate Timestamp:
                    Version   : v1 (0x0)
                    Log ID    : C4:69:28:BC:87:DE:23:B9:A8:BD:23:5A:A1:FE:67:CC:
                                B1:54:2C:83:89:AD:3F:02:BF:4A:B5:CF:F5:06:E9:8F
                    Timestamp : Jan 15 06:56:07.890 1970 GMT
                    Extensions: none
                    Signature : ecdsa-with-SHA256
                                73:69:67:6E:61:74:75:72:65:31

                Signed Certificate Timestamp:
                    Version   : v1 (0x0)
                    Log ID    : 73:AA:A5:07:1D:9F:86:15:50:D5:14:69:CB:D8:9E:0A:
                                6E:53:71:48:6F:D9:4C:96:75:28:1D:1C:EF:BD:51:17
                    Timestamp : Jan 15 06:56:07.891 1970 GMT
                    Extensions: none
                    Signature : ecdsa-with-SHA256
                                73:69:67:6E:61:74:75:72:65:32
    Signature Algorithm: sha256WithRSAEncryption
    Signature Value:
        2d:c3:ba:7c:05:80:cb:91:a2:ad:6c:92:4a:4e:28:1f:1d:c2:
        a6:45:7d:89:f8:4b:03:43:5f:df:03:e2:e9:cc:10:e4:da:76:
        14:fc:3d:42:3f:0e:94:f6:4d:09:9f:43:86:7b:02:2f:6b:1b:
        21:10:f1:a8:1a:92:90:4a:63:cc:bc:f3:5e:e7:06:87:f9:04:
        70:ac:e6:36:12:f1:98:21:57:52:61:88:7f:9a:09:7d:2d:cb:
        77:fe:a5:ed:3e:0e:50:fc:7a:4f:73:bd:37:c4:87:44:97:56:
        aa:6f:1a:98:99:ed:5d:5c:d9:25:9a:70:64:0d:12:a6:8f:a2:
        ab:c2:d8:af:17:80:0d:6c:16:74:86:ce:16:ac:25:84:fc:0b:
        ab:a7:bd:ab:9b:9f:d0:55:f6:d2:87:33:e6:a6:59:ee:33:44:
        a9:42:d0:9a:a2:5a:95:f6:99:9a:3c:25:87:73:b1:89:56:1b:
        a4:6e:af:be:7c:f3:37:4a:c3:9d:92:89:6a:ef:36:fb:a4:cb:
        f1:00:58:9d:6d:0d:ec:d0:1a:1a:91:33:eb:8e:53:d8:07:7a:
        a5:a8:5c:10:03:8e:e7:a0:c7:c7:5b:9b:58:dd:f9:e6:b1:10:
        f8:06:ad:78:08:53:cc:47:c8:f8:5a:aa:88:08:e0:8f:6d:88:
        e4:5b:67:2f:3d:4b:c0:f7:22:89:d8:4c:f2:67:89:e9:90:6c:
        7d:88:8a:0e:42:c9:c4:f8:73:3e:c7:b2:37:53:0a:75:3f:3c:
        6a:c1:e1:33:7d:76:4e:bb:b7:c7:d8:bc:52:2b:a6:2d:8f:12:
        ba:4d:26:ce:7a:24:e1:b4:9e:6e:d2:da:00:e4:41:3e:be:44:
        8b:90:60:03:f3:37:74:32:cd:a6:10:a8:9d:c5:12:a4:ea:ad:
        f9:86:c3:48:24:84:39:8a:00:6c:4c:58:97:3e:f5:50:62:39:
        41:14:92:b4:08:bc:cb:9e:3b:d3:52:56:6c:46:ee:c6:63:7a:
        62:2d:77:1f:e5:b0
-----BEGIN CERTIFICATE-----
MIIGJzCCBI+gAwIBAgIRAOHEsuhdfLRdSShjYCCUb7AwDQYJKoZIhvcNAQELBQAw
TDEbMBkGA1UEAxMST1YgQ29kZSBTaWduaW5nIENBMQswCQYDVQQLEwJDQTETMBEG
A1UEChMKRXhhbXBsZSBDbzELMAkGA1UEBhMCVVMwHhcNMjYwNjE1MDQ0MDU5WhcN
MjcwNjE1MDQ0MDU5WjCBgDETMBEGA1UEAxMKRXhhbXBsZSBDbzETMBEGA1UEChMK
RXhhbXBsZSBDbzETMBEGA1UECBMKQ2FsaWZvcm5pYTELMAkGA1UEBhMCVVMxEzAR
BgsrBgEEAYI3PAIBAxMCVVMxHTAbBgNVBA8TFFByaXZhdGUgT3JnYW5pemF0aW9u
MIIBojANBgkqhkiG9w0BAQEFAAOCAY8AMIIBigKCAYEAuMG3QRYhM4wwEGCo7AyU
p3mMg/Lz3KP4vaCGdcwOe02gphMjvL7BPaa54Un//1PYJiztNh86WvszqSWMWJA8
ziVtOvQhT/8kavHOZ5dRrbnVmoIr7kJuTMzpFvLEfBwQxj4UKvqmS6IqtlbgH1OL
TE+3F3IXSN89vFpZrait2HYJTKQ93zA3kPfZss9aX7bsSF19DHrf7wUuFzqM+t6n
apsHMu5m3QlVvceH0Xv0GCgAJwEy0jwI8F1Yx2xli8Klc/Fzp9MrI+0ZISdBfqSg
KJF2mYqgs8O7AbzHYVuaqSow3Y59U/egaq1vvSv16w6CTBmyHzfaHJSbn50nDbd0
4YeZB1chgjmV6ipzhiOWQjnBnJu6/RpNYHyMGYOjOd1cqLdiNGZbjLHCLvU45HgE
jZhGZrT7UIBwHZypax2nCCcMzJkA8venzuEwuVQU8Llc1lDz+K78Bm95IQp9YjPj
CsrGOijL4rwTfsrPkTU+NJjiXqu/emC6CsiL1A1OPaBtAgMBAAGjggHNMIIByTAO
BgNVHQ8BAf8EBAMCB4AwEwYDVR0lBAwwCgYIKwYBBQUHAwMwDAYDVR0TAQH/BAIw
ADAdBgNVHQ4EFgQUHOrA7JiK+xuvy60QV4pvWTzbhGAwHwYDVR0jBBgwFoAUU9jJ
8u6YZgp+8eO/970R9qI3XBAwWwYIKwYBBQUHAQEETzBNMCMGCCsGAQUFBzABhhdo
dHRwOi8vb2NzcC5leGFtcGxlLmNvbTAmBggrBgEFBQcwAoYaaHR0cDovL2V4YW1w
bGUuY29tL2NhMS5jcnQwEwYDVR0gBAwwCjAIBgZngQwBBAEwVwYDVR0fBFAwTjAl
oCOgIYYfaHR0cDovL2NybDEuZXhhbXBsZS5jb20vY2ExLmNybDAloCOgIYYfaHR0
cDovL2NybDIuZXhhbXBsZS5jb20vY2ExLmNybDCBiAYKKwYBBAHWeQIEAgR6BHgA
dgA5AMRpKLyH3iO5qL0jWqH+Z8yxVCyDia0/Ar9Ktc/1BumPAAAAAEmWAtIAAAQD
AApzaWduYXR1cmUxADkAc6qlBx2fhhVQ1RRpy9ieCm5TcUhv2UyWdSgdHO+9URcA
AAAASZYC0wAABAMACnNpZ25hdHVyZTIwDQYJKoZIhvcNAQELBQADggGBAC3DunwF
gMuRoq1skkpOKB8dwqZFfYn4SwNDX98D4unMEOTadhT8PUI/DpT2TQmfQ4Z7Ai9r
GyEQ8agakpBKY8y8817nBof5BHCs5jYS8ZghV1JhiH+aCX0ty3f+pe0+DlD8ek9z
vTfEh0SXVqpvGpiZ7V1c2SWacGQNEqaPoqvC2K8XgA1sFnSGzhasJYT8C6unvaub
n9BV9tKHM+amWe4zRKlC0JqiWpX2mZo8JYdzsYlWG6Rur7588zdKw52SiWrvNvuk
y/EAWJ1tDezQGhqRM+uOU9gHeqWoXBADjuegx8dbm1jd+eaxEPgGrXgIU8xHyPha
qogI4I9tiORbZy89S8D3IonYTPJniemQbH2Iig5CycT4cz7HsjdTCnU/PGrB4TN9
dk67t8fYvFIrpi2PErpNJs56JOG0nm7S2gDkQT6+RIuQYAPzN3QyzaYQqJ3FEqTq
rfmGw0gkhDmKAGxMWJc+9VBiOUEUkrQIvMueO9NSVmxG7sZjemItdx/lsA==
-----END CERTIFICATE-----
