Certificate:
    Data:
        Version: 3 (0x2)
        Serial Number:
            93:f6:f5:1e:7d:f3:1e:6e:c7:6d:81:2a:b8:2c:17:28
        Signature Algorithm: sha256WithRSAEncryption
        Issuer: CN=OV Code Signing CA, OU=CA, O=Example Co, C=US
        Validity
            Not Before: May 24 04:57:08 2026 GMT
            Not After : May 24 04:57:08 2027 GMT
        Subject: CN=Example Co, O=Example Co, L=Mountain View, ST=California, jurisdictionC=US, businessCategory=Private Organization
        Subject Public Key Info:
            Public Key Algorithm: rsaEncryption
                Public-Key: (3072 bit)
                Modulus:
                    00:c4:2e:92:38:71:7c:d2:e6:2a:24:b0:43:e4:23:
                    06:0d:ab:c8:9c:64:cb:7b:ab:c4:c3:61:6f:84:fb:
                    44:de:bc:1f:f8:da:99:d7:7b:24:be:ac:91:52:c9:
                    a4:df:92:b2:41:82:d2:7d:30:e0:f9:12:59:1a:fb:
                    32:93:87:b2:4f:2a:ad:34:de:61:cf:b2:78:c7:f3:
                    1f:ab:33:20:40:65:3a:01:d5:59:e6:2e:94:d2:c1:
                    42:6f:9e:9a:e3:66:38:3b:12:c6:4f:a5:50:58:7f:
                    7c:13:7d:fe:78:44:03:9c:ef:c2:40:8b:e4:3c:de:
                    5e:bd:5d:11:90:67:0d:e1:83:1f:4b:0d:6f:94:8c:
                    2e:4b:a9:a4:78:e3:a1:a8:83:4f:b6:41:bf:a0:96:
                    37:e1:6d:78:e3:08:8a:52:a1:5a:c7:91:66:87:f1:
                    3f:c9:6c:94:54:5f:8a:56:29:c2:af:a1:c0:d8:d5:
                    fe:82:ab:17:82:cc:af:39:63:d6:34:a1:99:c6:a4:
                    53:00:81:38:38:71:97:58:1a:fd:68:6c:ad:9a:50:
                    77:32:1a:1f:dc:72:06:07:0c:a2:e0:70:a0:f0:30:
                    4f:9f:ac:0f:17:73:72:22:3a:62:43:b4:f5:ef:36:
                    41:98:ed:03:a7:12:a8:2c:87:07:87:37:23:2c:62:
                    68:81:f2:a1:f8:b1:bd:ac:e4:42:15:27:54:dd:b5:
                    0a:c4:ce:f5:75:4d:28:df:5c:8c:5e:a0:15:3d:e7:
                    21:38:c2:da:5b:aa:95:79:29:21:2a:90:e4:7d:65:
                    2a:b4:6a:9e:e2:92:e4:57:00:d5:93:9f:3f:78:7e:
                    4e:6d:0d:50:8d:09:c9:68:d6:1f:3b:a7:a0:42:d4:
                    1c:c8:0a:74:28:4d:64:38:29:1a:f8:5c:f5:7e:2d:
                    83:56:be:18:26:ac:1d:b5:fd:f0:04:69:c1:92:d7:
                    c2:15:81:ef:8d:d0:73:22:5d:4f:ea:d2:1e:c0:99:
                    6e:93:96:22:47:7e:1f:84:d6:4f
                Exponent: 65537 (0x10001)
        X509v3 extensions:
            X509v3 Key Usage: critical
                Digital Signature
            X509v3 Extended Key Usage: 
                Code Signing
            X509v3 Basic Constraints: critical
                CA:FALSE
            X509v3 Subject Key Identifier: 
                19:C6:A1:78:E3:83:BD:62:9B:47:D8:09:75:5A:65:26:4D:F6:91:27
            X509v3 Authority Key Identifier: 
                ED:6F:9D:4E:15:24:E2:55:EE:A3:01:6A:6D:21:91:E5:82:9C:37:CE
            Authority Information Access: 
                OCSP - URI:http://ocsp.example.com
                CA Issuers - URI:http://example.com/ca1.crt
            X509v3 Certificate Policies: 
                Policy: 2.23.140.1.4.1
            X509v3 CRL Distribution Points: 
                Full Name:
                  URI:http://crl1.example.com/ca1.crl

                Full Name:
                  URI:http://crl2.example.com/ca1.crl

            CT Precertificate SCTs: 
                Signed Certificate Timestamp:
                    Version   : v1 (0x0)
                    Log ID    : C4:69:28:BC:87:DE:23:B9:A8:BD:23:5A:A1:FE:67:CC:
                                B1:54:2C:83:89:AD:3F:02:BF:4A:B5:CF:F5:06:E9:8F
                    Timestamp : Jan 15 06:56:07.890 1970 GMT
                    Extensions: none
                    Signature : ecdsa-with-SHA256
                                73:69:67:6E:61:74:75:72:65:31
                Signed Certificate Timestamp:
                    Version   : v1 (0x0)
                    Log ID    : 73:AA:A5:07:1D:9F:86:15:50:D5:14:69:CB:D8:9E:0A:
                                6E:53:71:48:6F:D9:4C:96:75:28:1D:1C:EF:BD:51:17
                    Timestamp : Jan 15 06:56:07.891 1970 GMT
                    Extensions: none
                    Signature : ecdsa-with-SHA256
                                73:69:67:6E:61:74:75:72:65:32
    Signature Algorithm: sha256WithRSAEncryption
    Signature Value:
        47:9c:ef:38:00:e2:af:82:08:ee:e6:05:f0:b9:fa:c8:2d:f2:
        3b:de:1a:c0:78:3b:1d:61:be:f0:c8:5e:20:dd:57:43:15:b8:
        56:55:96:ae:74:df:51:ad:db:1e:e5:d8:5d:d6:1b:a8:06:d1:
        76:b1:1a:3b:aa:5e:1d:ea:85:0a:8c:ca:78:dc:55:ce:7f:f1:
        41:de:ad:0d:bc:01:74:28:a9:4e:ce:24:d3:f7:98:ff:cf:21:
        a3:1a:d6:e8:c0:71:19:a3:92:20:c5:89:c2:84:fa:15:1e:50:
        b8:94:dc:f6:06:f3:35:aa:45:ad:4d:73:91:67:ee:44:b0:99:
        5e:b9:d7:8a:0b:ea:02:8a:00:98:1d:ac:aa:8e:0e:f5:d0:d4:
        2b:2c:1f:7d:80:70:4b:65:78:7f:af:7f:69:42:b0:08:9c:41:
        77:74:7f:38:3c:31:29:16:b4:39:11:88:72:1c:c3:90:f3:01:
        d4:da:ee:57:ae:69:5d:89:21:05:d3:7a:ac:a4:65:2e:d2:bf:
        77:86:b6:a7:70:b9:d6:31:8e:a5:11:a2:00:92:6f:ec:47:9e:
        77:e8:12:a0:41:88:95:78:9d:3b:ee:ab:92:52:da:a9:48:ff:
        ee:d9:b3:59:b2:da:f7:92:d5:a6:7d:36:47:2d:e0:e5:2e:f0:
        29:ab:66:1e:75:e4:db:86:99:97:5f:00:78:51:56:65:54:5a:
        38:fa:65:90:a6:e0:93:8a:f6:ad:57:82:02:9a:6a:35:9b:76:
        c1:10:d0:27:af:b7:f3:88:94:ca:f4:62:3b:24:90:b7:9a:fa:
        35:e3:59:59:e1:0e:99:ea:54:42:4d:b4:cc:5f:d3:96:3d:93:
        29:11:ba:70:a3:84:cc:0c:90:36:d7:a1:6e:10:44:a3:0b:f5:
        0f:ea:61:0c:db:d6:48:01:6c:a6:1b:82:ce:0c:a4:a1:f5:90:
        48:3b:84:87:46:7c:4d:e2:20:b4:df:63:57:4c:25:0a:b9:47:
        23:4e:22:b3:50:dd
-----BEGIN CERTIFICATE-----
MIIGMjCCBJqgAwIBAgIRAJP29R598x5ux22BKrgsFygwDQYJKoZIhvcNAQELBQAw
TDEbMBkGA1UEAxMST1YgQ29kZSBTaWduaW5nIENBMQswCQYDVQQLEwJDQTETMBEG
A1UEChMKRXhhbXBsZSBDbzELMAkGA1UEBhMCVVMwHhcNMjYwNTI0MDQ1NzA4WhcN
MjcwNTI0MDQ1NzA4WjCBizETMBEGA1UEAxMKRXhhbXBsZSBDbzETMBEGA1UEChMK
RXhhbXBsZSBDbzEWMBQGA1UEBxMNTW91bnRhaW4gVmlldzETMBEGA1UECBMKQ2Fs
aWZvcm5pYTETMBEGCysGAQQBgjc8AgEDEwJVUzEdMBsGA1UEDxMUUHJpdmF0ZSBP
cmdhbml6YXRpb24wggGiMA0GCSqGSIb3DQEBAQUAA4IBjwAwggGKAoIBgQDELpI4
cXzS5ioksEPkIwYNq8icZMt7q8TDYW+E+0TevB/42pnXeyS+rJFSyaTfkrJBgtJ9
MOD5Elka+zKTh7JPKq003mHPsnjH8x+rMyBAZToB1VnmLpTSwUJvnprjZjg7EsZP
pVBYf3wTff54RAOc78JAi+Q83l69XRGQZw3hgx9LDW+UjC5LqaR446Gog0+2Qb+g
ljfhbXjjCIpSoVrHkWaH8T/JbJRUX4pWKcKvocDY1f6CqxeCzK85Y9Y0oZnGpFMA
gTg4cZdYGv1obK2aUHcyGh/ccgYHDKLgcKDwME+frA8Xc3IiOmJDtPXvNkGY7QOn
EqgshweHNyMsYmiB8qH4sb2s5EIVJ1TdtQrEzvV1TSjfXIxeoBU95yE4wtpbqpV5
KSEqkOR9ZSq0ap7ikuRXANWTnz94fk5tDVCNCclo1h87p6BC1BzICnQoTWQ4KRr4
XPV+LYNWvhgmrB21/fAEacGS18IVge+N0HMiXU/q0h7AmW6TliJHfh+E1k8CAwEA
AaOCAc0wggHJMA4GA1UdDwEB/wQEAwIHgDATBgNVHSUEDDAKBggrBgEFBQcDAzAM
BgNVHRMBAf8EAjAAMB0GA1UdDgQWBBQZxqF444O9YptH2Al1WmUmTfaRJzAfBgNV
HSMEGDAWgBTtb51OFSTiVe6jAWptIZHlgpw3zjBbBggrBgEFBQcBAQRPME0wIwYI
KwYBBQUHMAGGF2h0dHA6Ly9vY3NwLmV4YW1wbGUuY29tMCYGCCsGAQUFBzAChhpo
dHRwOi8vZXhhbXBsZS5jb20vY2ExLmNydDATBgNVHSAEDDAKMAgGBmeBDAEEATBX
BgNVHR8EUDBOMCWgI6Ahhh9odHRwOi8vY3JsMS5leGFtcGxlLmNvbS9jYTEuY3Js
MCWgI6Ahhh9odHRwOi8vY3JsMi5leGFtcGxlLmNvbS9jYTEuY3JsMIGIBgorBgEE
AdZ5AgQCBHoEeAB2ADkAxGkovIfeI7movSNaof5nzLFULIOJrT8Cv0q1z/UG6Y8A
AAAASZYC0gAABAMACnNpZ25hdHVyZTEAOQBzqqUHHZ+GFVDVFGnL2J4KblNxSG/Z
TJZ1KB0c771RFwAAAABJlgLTAAAEAwAKc2lnbmF0dXJlMjANBgkqhkiG9w0BAQsF
AAOCAYEAR5zvOADir4II7uYF8Ln6yC3yO94awHg7HWG+8MheIN1XQxW4VlWWrnTf
Ua3bHuXYXdYbqAbRdrEaO6peHeqFCozKeNxVzn/xQd6tDbwBdCipTs4k0/eY/88h
oxrW6MBxGaOSIMWJwoT6FR5QuJTc9gbzNapFrU1zkWfuRLCZXrnXigvqAooAmB2s
qo4O9dDUKywffYBwS2V4f69/aUKwCJxBd3R/ODwxKRa0ORGIchzDkPMB1NruV65p
XYkhBdN6rKRlLtK/d4a2p3C51jGOpRGiAJJv7Eeed+gSoEGIlXidO+6rklLaqUj/
7tmzWbLa95LVpn02Ry3g5S7wKatmHnXk24aZl18AeFFWZVRaOPplkKbgk4r2rVeC
AppqNZt2wRDQJ6+384iUyvRiOySQt5r6NeNZWeEOmepUQk20zF/Tlj2TKRG6cKOE
zAyQNtehbhBEowv1D+phDNvWSAFsphuCzgykofWQSDuEh0Z8TeIgtN9jV0wlCrlH
I04is1Dd
-----END CERTIFICATE-----
