Certificate:
    Data:
        Version: 3 (0x2)
        Serial Number:
            62:ae:e4:11:d1:bc:46:d8:6c:a2:26:44:41:78:98:3e
        Signature Algorithm: sha256WithRSAEncryption
        Issuer: CN=OV Code Signing CA, OU=CA, O=Example Co, C=US
        Validity
            Not Before: Jun 21 01:48:33 2026 GMT
            Not After : Jun 21 01:48:33 2027 GMT
        Subject: CN=Example Co, O=Example Co, L=Mountain View, ST=California, C=ZZ, jurisdictionC=US, businessCategory=Private Organization
        Subject Public Key Info:
            Public Key Algorithm: rsaEncryption
                Public-Key: (3072 bit)
                Modulus:
                    00:b6:88:54:c1:c2:b6:6e:a5:44:a3:c3:bd:e8:31:
                    99:c9:7e:f8:76:15:9e:1e:86:e9:51:d8:0d:62:15:
                    62:8f:9a:74:c9:a5:67:4f:98:9d:e7:eb:31:59:7d:
                    bb:58:b4:b9:44:0d:1f:3a:b2:58:13:5b:f6:0a:79:
                    1d:94:8d:2f:e2:d9:0c:c4:22:32:49:78:f4:4f:3c:
                    c0:c3:55:77:c7:9b:50:47:71:1f:f4:54:0d:47:8d:
                    18:6c:c4:ba:6b:f4:38:0e:fe:41:84:86:fb:23:fd:
                    d7:5a:79:3a:ce:a4:4b:4a:e2:fa:f4:d6:70:6d:a9:
                    11:54:8d:6d:fb:9e:41:47:d1:98:e4:72:63:20:37:
                    5a:98:5c:a1:50:47:dd:ff:5a:ce:64:bf:7d:0f:50:
                    2e:32:35:33:cb:c8:33:b6:85:6f:c2:dc:f8:2e:c7:
                    68:a4:4f:79:00:0d:32:cc:f9:73:19:db:8a:f0:55:
                    28:19:10:94:93:9e:cc:53:29:9e:94:81:46:b9:f2:
                    be:14:31:62:08:1c:1b:95:2c:01:39:48:13:05:f5:
                    d3:2b:76:a1:85:66:4a:52:f2:2c:54:2f:47:81:98:
                    28:cd:2c:40:35:a9:3a:8c:d9:d8:81:88:2f:b6:c9:
                    b3:cc:a8:eb:f3:10:11:65:22:df:4f:96:a7:b1:85:
                    20:c5:77:59:86:b6:23:43:99:49:42:3d:cb:34:e5:
                    a7:f3:67:c3:43:fc:9c:6d:04:b6:da:cc:98:09:35:
                    7f:62:c2:ac:c2:f1:a2:50:b3:e8:ca:03:96:68:c3:
                    f0:fb:ef:65:a8:f0:58:93:85:ee:e7:cc:08:6d:9d:
                    d1:6f:16:16:e3:78:88:60:7c:87:f3:c9:b6:9f:4c:
                    a0:d9:d1:b5:69:98:88:dc:aa:e5:68:9c:0b:07:38:
                    2b:96:4b:76:79:21:ff:93:9d:57:f3:72:71:15:be:
                    6e:0a:2a:01:92:9d:e3:1f:33:00:35:d6:b4:71:b9:
                    04:9c:f6:bf:cc:b3:bb:65:5e:e1
                Exponent: 65537 (0x10001)
        X509v3 extensions:
            X509v3 Key Usage: critical
                Digital Signature
            X509v3 Extended Key Usage: 
                Code Signing
            X509v3 Basic Constraints: critical
                CA:FALSE
            X509v3 Subject Key Identifier: 
                1B:63:EE:BC:37:F5:16:49:FA:A8:48:A0:5A:4B:C2:55:2B:D2:59:96
            X509v3 Authority Key Identifier: 
                05:D1:C4:D2:B5:A7:30:2F:7C:05:F9:A9:88:04:6A:F2:DE:BD:6F:57
            Authority Information Access: 
                OCSP - URI:http://ocsp.example.com
                CA Issuers - URI:http://example.com/ca1.crt
            X509v3 Certificate Policies: 
                Policy: 2.23.140.1.4.1
            X509v3 CRL Distribution Points: 
                Full Name:
                  URI:http://crl1.example.com/ca1.crl

                Full Name:
                  URI:http://crl2.example.com/ca1.crl

            CT Precertificate SCTs: 
                Signed Certificate Timestamp:
                    Version   : v1 (0x0)
                    Log ID    : C4:69:28:BC:87:DE:23:B9:A8:BD:23:5A:A1:FE:67:CC:
                                B1:54:2C:83:89:AD:3F:02:BF:4A:B5:CF:F5:06:E9:8F
                    Timestamp : Jan 15 06:56:07.890 1970 GMT
                    Extensions: none
                    Signature : ecdsa-with-SHA256
                                73:69:67:6E:61:74:75:72:65:31
                Signed Certificate Timestamp:
                    Version   : v1 (0x0)
                    Log ID    : 73:AA:A5:07:1D:9F:86:15:50:D5:14:69:CB:D8:9E:0A:
                                6E:53:71:48:6F:D9:4C:96:75:28:1D:1C:EF:BD:51:17
                    Timestamp : Jan 15 06:56:07.891 1970 GMT
                    Extensions: none
                    Signature : ecdsa-with-SHA256
                                73:69:67:6E:61:74:75:72:65:32
    Signature Algorithm: sha256WithRSAEncryption
    Signature Value:
        16:61:2c:fd:b4:3f:07:25:c9:bc:91:31:cf:a0:82:90:6f:7f:
        f7:57:fa:2c:77:7d:da:8e:3d:62:10:0b:46:d8:23:fd:54:89:
        de:f9:a5:23:1e:a8:be:14:d9:aa:aa:d0:55:d0:50:4b:93:8c:
        27:ad:a2:76:70:0d:b7:6c:30:c6:96:19:a9:76:36:7a:a5:94:
        15:f3:29:dc:22:f5:2b:b8:8a:05:bf:47:07:04:36:9e:65:cc:
        5a:7d:66:8b:0d:dc:2d:18:be:dd:fe:f6:0a:aa:f3:fa:c0:f7:
        ae:61:3f:97:d2:2c:46:9a:70:be:74:5e:6d:5a:47:08:db:2f:
        6a:2f:85:4a:d6:62:85:ba:e1:7e:75:67:42:f8:7d:f0:64:59:
        4f:4b:c0:e2:e0:4c:81:04:d8:06:f4:44:f7:11:74:ca:2f:83:
        9c:3b:f3:dc:36:24:c1:79:7a:7f:e4:08:af:ba:31:02:9e:b6:
        0b:82:78:cc:bb:f9:34:c0:d0:f9:21:e6:96:40:cf:24:66:b2:
        aa:6a:de:65:39:f1:de:a8:3e:ad:14:52:e8:c9:9f:46:93:db:
        a4:cd:c4:68:3c:dd:b3:29:d7:bc:96:13:02:8f:f5:8a:2b:e8:
        52:29:a6:62:ee:9f:27:28:59:06:d2:59:2f:e4:60:63:15:c9:
        a3:72:42:ee:0d:cc:bd:61:b2:e6:e8:b1:e2:67:19:27:84:cb:
        38:f6:3c:38:ec:3f:80:e9:cd:e3:55:2d:7e:ec:ff:82:e7:cf:
        0b:12:0d:e8:7d:7b:ed:32:6f:c4:65:d4:c9:e7:d6:2f:37:07:
        1f:f9:e8:b7:2a:ac:bf:f6:cc:e4:d1:d0:3b:cc:37:6f:16:69:
        d2:cf:a9:1b:0b:c9:89:f0:02:f2:77:c4:fd:ff:c1:93:13:a1:
        0b:31:bf:96:93:64:66:7a:bd:46:50:0c:da:bf:93:f1:8b:57:
        bd:4e:71:3f:2e:ab:92:c0:9b:d1:29:7a:45:47:7d:dc:44:f0:
        b9:97:48:37:7a:30
-----BEGIN CERTIFICATE-----
MIIGPjCCBKagAwIBAgIQYq7kEdG8RthsoiZEQXiYPjANBgkqhkiG9w0BAQsFADBM
MRswGQYDVQQDExJPViBDb2RlIFNpZ25pbmcgQ0ExCzAJBgNVBAsTAkNBMRMwEQYD
VQQKEwpFeGFtcGxlIENvMQswCQYDVQQGEwJVUzAeFw0yNjA2MjEwMTQ4MzNaFw0y
NzA2MjEwMTQ4MzNaMIGYMRMwEQYDVQQDEwpFeGFtcGxlIENvMRMwEQYDVQQKEwpF
eGFtcGxlIENvMRYwFAYDVQQHEw1Nb3VudGFpbiBWaWV3MRMwEQYDVQQIEwpDYWxp
Zm9ybmlhMQswCQYDVQQGEwJaWjETMBEGCysGAQQBgjc8AgEDEwJVUzEdMBsGA1UE
DxMUUHJpdmF0ZSBPcmdhbml6YXRpb24wggGiMA0GCSqGSIb3DQEBAQUAA4IBjwAw
ggGKAoIBgQC2iFTBwrZupUSjw73oMZnJfvh2FZ4ehulR2A1iFWKPmnTJpWdPmJ3n
6zFZfbtYtLlEDR86slgTW/YKeR2UjS/i2QzEIjJJePRPPMDDVXfHm1BHcR/0VA1H
jRhsxLpr9DgO/kGEhvsj/ddaeTrOpEtK4vr01nBtqRFUjW37nkFH0ZjkcmMgN1qY
XKFQR93/Ws5kv30PUC4yNTPLyDO2hW/C3Pgux2ikT3kADTLM+XMZ24rwVSgZEJST
nsxTKZ6UgUa58r4UMWIIHBuVLAE5SBMF9dMrdqGFZkpS8ixUL0eBmCjNLEA1qTqM
2diBiC+2ybPMqOvzEBFlIt9PlqexhSDFd1mGtiNDmUlCPcs05afzZ8ND/JxtBLba
zJgJNX9iwqzC8aJQs+jKA5Zow/D772Wo8FiThe7nzAhtndFvFhbjeIhgfIfzybaf
TKDZ0bVpmIjcquVonAsHOCuWS3Z5If+TnVfzcnEVvm4KKgGSneMfMwA11rRxuQSc
9r/Ms7tlXuECAwEAAaOCAc0wggHJMA4GA1UdDwEB/wQEAwIHgDATBgNVHSUEDDAK
BggrBgEFBQcDAzAMBgNVHRMBAf8EAjAAMB0GA1UdDgQWBBQbY+68N/UWSfqoSKBa
S8JVK9JZljAfBgNVHSMEGDAWgBQF0cTStacwL3wF+amIBGry3r1vVzBbBggrBgEF
BQcBAQRPME0wIwYIKwYBBQUHMAGGF2h0dHA6Ly9vY3NwLmV4YW1wbGUuY29tMCYG
CCsGAQUFBzAChhpodHRwOi8vZXhhbXBsZS5jb20vY2ExLmNydDATBgNVHSAEDDAK
MAgGBmeBDAEEATBXBgNVHR8EUDBOMCWgI6Ahhh9odHRwOi8vY3JsMS5leGFtcGxl
LmNvbS9jYTEuY3JsMCWgI6Ahhh9odHRwOi8vY3JsMi5leGFtcGxlLmNvbS9jYTEu
Y3JsMIGIBgorBgEEAdZ5AgQCBHoEeAB2ADkAxGkovIfeI7movSNaof5nzLFULIOJ
rT8Cv0q1z/UG6Y8AAAAASZYC0gAABAMACnNpZ25hdHVyZTEAOQBzqqUHHZ+GFVDV
FGnL2J4KblNxSG/ZTJZ1KB0c771RFwAAAABJlgLTAAAEAwAKc2lnbmF0dXJlMjAN
BgkqhkiG9w0BAQsFAAOCAYEAFmEs/bQ/ByXJvJExz6CCkG9/91f6LHd92o49YhAL
Rtgj/VSJ3vmlIx6ovhTZqqrQVdBQS5OMJ62idnANt2wwxpYZqXY2eqWUFfMp3CL1
K7iKBb9HBwQ2nmXMWn1miw3cLRi+3f72Cqrz+sD3rmE/l9IsRppwvnRebVpHCNsv
ai+FStZihbrhfnVnQvh98GRZT0vA4uBMgQTYBvRE9xF0yi+DnDvz3DYkwXl6f+QI
r7oxAp62C4J4zLv5NMDQ+SHmlkDPJGayqmreZTnx3qg+rRRS6MmfRpPbpM3EaDzd
synXvJYTAo/1iivoUimmYu6fJyhZBtJZL+RgYxXJo3JC7g3MvWGy5uix4mcZJ4TL
OPY8OOw/gOnN41Utfuz/gufPCxIN6H177TJvxGXUyefWLzcHH/notyqsv/bM5NHQ
O8w3bxZp0s+pGwvJifAC8nfE/f/BkxOhCzG/lpNkZnq9RlAM2r+T8YtXvU5xPy6r
ksCb0Sl6RUd93ETwuZdIN3ow
-----END CERTIFICATE-----
