Certificate:
    Data:
        Version: 3 (0x2)
        Serial Number:
            e5:87:f1:41:a3:b5:74:a0:33:e5:2b:bf:83:59:3c:bf
        Signature Algorithm: sha256WithRSAEncryption
        Issuer: CN=OV Code Signing CA, OU=CA, O=Example Co, C=US
        Validity
            Not Before: May 24 04:58:56 2026 GMT
            Not After : May 24 04:58:56 2027 GMT
        Subject: CN=Example Co, O=Example Co, L=Mountain View, ST=California, C=., jurisdictionC=US, businessCategory=Private Organization
        Subject Public Key Info:
            Public Key Algorithm: rsaEncryption
                Public-Key: (3072 bit)
                Modulus:
                    00:ce:32:c3:a9:92:8d:be:9c:64:05:a5:0a:3e:b5:
                    53:f3:19:42:2a:9a:27:cb:af:e0:19:ad:56:6c:3f:
                    b3:7f:1c:1f:4a:50:31:55:a5:83:f1:77:6f:30:3a:
                    80:de:c1:b5:c0:4e:94:2f:1f:b1:35:02:f7:16:67:
                    ff:2b:1d:8f:a8:eb:00:ad:73:bd:8c:53:24:2b:b3:
                    17:bf:ff:81:2d:f8:8d:5e:94:0d:93:56:a6:2b:dc:
                    d0:f7:61:f2:cc:23:0d:4a:af:03:75:fa:31:05:1e:
                    9a:7b:40:b3:f4:c7:1e:7b:61:0a:49:ba:4f:7b:ae:
                    3f:7d:94:31:d5:d8:b6:20:55:e5:58:b1:05:ba:0a:
                    18:d7:72:bd:a1:33:32:41:76:25:0b:c4:ee:5a:ac:
                    f7:8d:d8:ad:67:f8:44:a5:c8:64:19:d3:0a:31:cf:
                    93:00:e4:69:98:f0:9c:b9:ce:fc:e2:7b:c5:69:f0:
                    29:eb:c0:fe:78:ca:b5:e5:67:d3:a4:2d:f9:2c:bc:
                    e2:70:38:ef:d5:15:1a:87:81:10:24:24:f4:97:9e:
                    ab:59:68:19:78:d9:36:c6:fa:c9:49:f9:79:ca:c6:
                    73:c8:77:ee:59:92:5e:ec:00:8d:e4:ae:37:b4:22:
                    3f:06:c7:4c:4f:9c:d9:49:95:da:7a:87:59:8e:96:
                    58:e2:4a:0c:a2:1e:1f:22:f8:c9:ed:db:e7:94:a3:
                    49:05:c8:ea:9a:ec:0f:7a:b9:f9:c3:42:05:5d:a9:
                    a0:20:c6:32:b5:97:00:4a:03:e2:4e:69:72:e1:83:
                    0f:45:36:f1:96:13:de:20:33:53:87:22:bb:b4:51:
                    81:94:27:ad:48:0b:46:a4:33:e9:41:4f:33:be:ed:
                    2f:df:e4:69:64:f4:29:92:43:1d:4d:63:b6:1f:d1:
                    0a:c5:9d:33:d4:45:fb:2f:6d:9f:ca:45:5d:50:e5:
                    df:3c:6a:02:c0:82:77:e4:a9:86:d9:b3:5d:b8:80:
                    f2:bb:87:fc:b9:08:a1:d8:1f:f5
                Exponent: 65537 (0x10001)
        X509v3 extensions:
            X509v3 Key Usage: critical
                Digital Signature
            X509v3 Extended Key Usage: 
                Code Signing
            X509v3 Basic Constraints: critical
                CA:FALSE
            X509v3 Subject Key Identifier: 
                3B:8A:6A:94:29:4B:D0:04:40:FD:2F:66:FF:10:BF:D4:77:CE:92:2D
            X509v3 Authority Key Identifier: 
                8A:BC:22:43:A1:5D:67:23:5A:3E:1F:FC:E8:77:2F:7A:90:F3:9E:4E
            Authority Information Access: 
                OCSP - URI:http://ocsp.example.com
                CA Issuers - URI:http://example.com/ca1.crt
            X509v3 Certificate Policies: 
                Policy: 2.23.140.1.4.1
            X509v3 CRL Distribution Points: 
                Full Name:
                  URI:http://crl1.example.com/ca1.crl

                Full Name:
                  URI:http://crl2.example.com/ca1.crl

            CT Precertificate SCTs: 
                Signed Certificate Timestamp:
                    Version   : v1 (0x0)
                    Log ID    : C4:69:28:BC:87:DE:23:B9:A8:BD:23:5A:A1:FE:67:CC:
                                B1:54:2C:83:89:AD:3F:02:BF:4A:B5:CF:F5:06:E9:8F
                    Timestamp : Jan 15 06:56:07.890 1970 GMT
                    Extensions: none
                    Signature : ecdsa-with-SHA256
                                73:69:67:6E:61:74:75:72:65:31
                Signed Certificate Timestamp:
                    Version   : v1 (0x0)
                    Log ID    : 73:AA:A5:07:1D:9F:86:15:50:D5:14:69:CB:D8:9E:0A:
                                6E:53:71:48:6F:D9:4C:96:75:28:1D:1C:EF:BD:51:17
                    Timestamp : Jan 15 06:56:07.891 1970 GMT
                    Extensions: none
                    Signature : ecdsa-with-SHA256
                                73:69:67:6E:61:74:75:72:65:32
    Signature Algorithm: sha256WithRSAEncryption
    Signature Value:
        22:6b:12:5d:de:59:b8:bf:d8:fe:2a:49:8b:88:c0:af:26:c2:
        81:64:df:02:df:c3:3f:c6:ba:34:db:dc:7c:1f:bb:d2:fd:49:
        9f:13:14:b4:94:8a:88:a1:4b:bf:07:a9:c4:68:32:9c:57:b3:
        ea:32:20:3d:d9:08:c1:2d:6b:cf:06:3e:f0:03:2d:6f:e0:fb:
        b0:f6:05:63:fa:20:7c:af:b3:d9:3b:ee:9a:58:9a:1f:ac:07:
        fc:5a:18:8f:42:dc:fb:3a:11:38:11:8e:6c:0f:49:7a:f4:18:
        9f:9b:63:4f:38:7b:26:27:58:57:47:ab:ea:54:84:ee:8f:a1:
        f0:a1:c2:9d:9d:ed:20:fc:0e:dc:82:79:e8:cd:a9:53:1c:d9:
        06:de:42:08:3d:82:7b:b8:34:92:cc:00:30:be:2b:ca:5e:df:
        71:83:8b:db:07:29:fa:07:31:c9:36:e0:b0:d1:8f:7b:88:7c:
        7d:9d:a1:c9:2a:00:7d:2f:8a:f3:95:a4:f4:db:d1:08:be:31:
        e9:c9:f6:59:14:46:63:36:8c:97:2d:04:41:50:ae:87:ff:fd:
        48:72:cd:f3:92:13:ed:e0:26:83:9d:f0:b0:c4:86:74:1d:7b:
        a2:54:17:32:ef:ab:b7:d3:24:40:30:ae:f2:cf:d9:8e:4e:0a:
        d6:2d:f5:e9:9e:57:a0:43:84:4a:76:1e:e0:83:94:bb:a4:bd:
        25:72:e4:16:bd:45:f6:28:5f:71:c7:b9:2d:02:bb:d5:6a:e2:
        38:97:3f:5e:c4:04:9a:83:ae:4d:ea:8a:7a:29:fa:9a:27:9c:
        ed:ef:4e:aa:9e:c2:8c:b8:4a:82:65:5e:76:d9:f4:f0:8e:f7:
        4e:5b:d7:91:9c:c8:e0:b5:33:80:13:5e:1a:40:ce:32:4b:f3:
        21:ab:2d:14:74:91:11:20:c7:68:10:44:b9:aa:19:dd:85:3f:
        63:93:4b:ea:33:d4:96:3d:aa:94:e2:8d:12:94:15:73:64:f8:
        c9:fe:5e:93:9e:8c
-----BEGIN CERTIFICATE-----
MIIGPjCCBKagAwIBAgIRAOWH8UGjtXSgM+Urv4NZPL8wDQYJKoZIhvcNAQELBQAw
TDEbMBkGA1UEAxMST1YgQ29kZSBTaWduaW5nIENBMQswCQYDVQQLEwJDQTETMBEG
A1UEChMKRXhhbXBsZSBDbzELMAkGA1UEBhMCVVMwHhcNMjYwNTI0MDQ1ODU2WhcN
MjcwNTI0MDQ1ODU2WjCBlzETMBEGA1UEAxMKRXhhbXBsZSBDbzETMBEGA1UEChMK
RXhhbXBsZSBDbzEWMBQGA1UEBxMNTW91bnRhaW4gVmlldzETMBEGA1UECBMKQ2Fs
aWZvcm5pYTEKMAgGA1UEBhMBLjETMBEGCysGAQQBgjc8AgEDEwJVUzEdMBsGA1UE
DxMUUHJpdmF0ZSBPcmdhbml6YXRpb24wggGiMA0GCSqGSIb3DQEBAQUAA4IBjwAw
ggGKAoIBgQDOMsOpko2+nGQFpQo+tVPzGUIqmifLr+AZrVZsP7N/HB9KUDFVpYPx
d28wOoDewbXATpQvH7E1AvcWZ/8rHY+o6wCtc72MUyQrsxe//4Et+I1elA2TVqYr
3ND3YfLMIw1KrwN1+jEFHpp7QLP0xx57YQpJuk97rj99lDHV2LYgVeVYsQW6ChjX
cr2hMzJBdiULxO5arPeN2K1n+ESlyGQZ0woxz5MA5GmY8Jy5zvzie8Vp8CnrwP54
yrXlZ9OkLfksvOJwOO/VFRqHgRAkJPSXnqtZaBl42TbG+slJ+XnKxnPId+5Zkl7s
AI3krje0Ij8Gx0xPnNlJldp6h1mOlljiSgyiHh8i+Mnt2+eUo0kFyOqa7A96ufnD
QgVdqaAgxjK1lwBKA+JOaXLhgw9FNvGWE94gM1OHIru0UYGUJ61IC0akM+lBTzO+
7S/f5Glk9CmSQx1NY7Yf0QrFnTPURfsvbZ/KRV1Q5d88agLAgnfkqYbZs124gPK7
h/y5CKHYH/UCAwEAAaOCAc0wggHJMA4GA1UdDwEB/wQEAwIHgDATBgNVHSUEDDAK
BggrBgEFBQcDAzAMBgNVHRMBAf8EAjAAMB0GA1UdDgQWBBQ7imqUKUvQBED9L2b/
EL/Ud86SLTAfBgNVHSMEGDAWgBSKvCJDoV1nI1o+H/zody96kPOeTjBbBggrBgEF
BQcBAQRPME0wIwYIKwYBBQUHMAGGF2h0dHA6Ly9vY3NwLmV4YW1wbGUuY29tMCYG
CCsGAQUFBzAChhpodHRwOi8vZXhhbXBsZS5jb20vY2ExLmNydDATBgNVHSAEDDAK
MAgGBmeBDAEEATBXBgNVHR8EUDBOMCWgI6Ahhh9odHRwOi8vY3JsMS5leGFtcGxl
LmNvbS9jYTEuY3JsMCWgI6Ahhh9odHRwOi8vY3JsMi5leGFtcGxlLmNvbS9jYTEu
Y3JsMIGIBgorBgEEAdZ5AgQCBHoEeAB2ADkAxGkovIfeI7movSNaof5nzLFULIOJ
rT8Cv0q1z/UG6Y8AAAAASZYC0gAABAMACnNpZ25hdHVyZTEAOQBzqqUHHZ+GFVDV
FGnL2J4KblNxSG/ZTJZ1KB0c771RFwAAAABJlgLTAAAEAwAKc2lnbmF0dXJlMjAN
BgkqhkiG9w0BAQsFAAOCAYEAImsSXd5ZuL/Y/ipJi4jArybCgWTfAt/DP8a6NNvc
fB+70v1JnxMUtJSKiKFLvwepxGgynFez6jIgPdkIwS1rzwY+8AMtb+D7sPYFY/og
fK+z2TvumliaH6wH/FoYj0Lc+zoROBGObA9JevQYn5tjTzh7JidYV0er6lSE7o+h
8KHCnZ3tIPwO3IJ56M2pUxzZBt5CCD2Ce7g0kswAML4ryl7fcYOL2wcp+gcxyTbg
sNGPe4h8fZ2hySoAfS+K85Wk9NvRCL4x6cn2WRRGYzaMly0EQVCuh//9SHLN85IT
7eAmg53wsMSGdB17olQXMu+rt9MkQDCu8s/Zjk4K1i316Z5XoEOESnYe4IOUu6S9
JXLkFr1F9ihfcce5LQK71WriOJc/XsQEmoOuTeqKein6miec7e9Oqp7CjLhKgmVe
dtn08I73TlvXkZzI4LUzgBNeGkDOMkvzIastFHSRESDHaBBEuaoZ3YU/Y5NL6jPU
lj2qlOKNEpQVc2T4yf5ek56M
-----END CERTIFICATE-----
