Certificate:
    Data:
        Version: 3 (0x2)
        Serial Number:
            31:67:f6:1a:50:76:a2:e9:b9:10:f2:2e:f4:7f:d9:42
        Signature Algorithm: sha256WithRSAEncryption
        Issuer: CN=EV Code Signing CA, OU=CA, O=Example Co, C=US
        Validity
            Not Before: Jun 21 05:45:17 2026 GMT
            Not After : Jun 21 05:45:17 2027 GMT
        Subject: CN=Example Co, O=Example Co, L=Mountain View, ST=California, C=US, jurisdictionL=Mountain View, jurisdictionST=California, jurisdictionC=US, serialNumber=12345678, businessCategory=Private Organization
        Subject Public Key Info:
            Public Key Algorithm: rsaEncryption
                Public-Key: (3072 bit)
                Modulus:
                    00:ed:37:09:3f:78:82:72:7a:f8:c5:b7:c2:fc:70:
                    e9:37:7c:db:0a:e7:ed:7e:3f:04:ef:3d:49:24:a9:
                    07:7f:71:03:e8:0e:ce:a1:c7:db:ed:da:32:a9:27:
                    ac:ef:1b:f3:bb:22:03:19:70:11:30:35:dc:26:88:
                    41:fd:4a:b1:03:ea:f5:02:32:0a:3d:2a:27:34:4c:
                    7c:aa:e6:b5:51:7d:f3:1d:3a:24:10:88:92:d2:a8:
                    1a:e9:5f:e8:fe:45:62:11:ea:d0:8f:5f:2f:92:c4:
                    04:90:56:9c:44:8b:06:f6:07:4b:25:d6:da:09:3f:
                    b5:ee:b5:1d:8a:7b:43:f2:ff:38:03:40:4b:10:1b:
                    da:3b:f6:ba:ee:ea:36:15:23:9f:21:71:3e:67:a5:
                    cb:0c:34:b8:b8:42:a6:a8:a0:68:50:4b:ad:dc:b4:
                    68:cd:10:c9:9f:a5:c5:fe:fb:40:3d:78:7a:21:37:
                    66:84:5a:8a:a9:b2:78:a3:26:8d:4c:2d:26:0b:b2:
                    29:44:ca:61:38:6e:97:b2:10:08:9b:fb:8e:e2:54:
                    55:9e:ed:c0:b6:73:bc:e8:1e:94:50:e2:aa:5f:1e:
                    97:b4:66:b3:cf:8a:a8:7b:0b:26:ba:75:6b:29:48:
                    53:be:5a:0b:49:5b:e9:68:52:13:5f:ac:75:b2:6d:
                    9b:ac:e4:27:7b:74:59:c4:24:74:ad:ac:a6:7d:e0:
                    42:4e:b8:81:36:3f:79:52:21:38:bd:6e:7b:4a:e5:
                    dc:22:f8:b7:c6:3f:32:dd:42:da:45:6a:95:f3:07:
                    1b:3d:a5:c9:65:57:bb:13:19:99:0d:09:30:4b:72:
                    a0:c1:bc:5c:a3:fe:7d:01:84:70:35:24:3f:09:04:
                    ce:54:04:be:62:4a:6f:c5:fa:a7:d7:e9:2e:7e:6b:
                    73:bd:12:f3:df:e0:31:8e:8a:69:7d:ba:19:40:42:
                    70:de:fd:e9:91:28:b4:74:c6:c9:18:68:73:d3:dd:
                    34:02:24:7f:ec:e6:20:4d:99:27
                Exponent: 65537 (0x10001)
        X509v3 extensions:
            X509v3 Key Usage: critical
                Digital Signature
            X509v3 Extended Key Usage: 
                Code Signing
            X509v3 Basic Constraints: critical
                CA:FALSE
            X509v3 Subject Key Identifier: 
                16:19:FE:94:2B:5E:3E:E9:5A:1C:F1:1D:37:CA:78:F7:E5:E2:96:10
            X509v3 Authority Key Identifier: 
                1F:74:42:4D:F0:63:F2:77:D1:E2:86:BF:B5:1B:78:77:41:23:50:5E
            Authority Information Access: 
                OCSP - URI:http://ocsp.example.com
                CA Issuers - URI:http://example.com/ca1.crt
            X509v3 Certificate Policies: 
                Policy: 2.23.140.1.3
            X509v3 CRL Distribution Points: 
                Full Name:
                  URI:http://crl1.example.com/ca1.crl

                Full Name:
                  URI:http://crl2.example.com/ca1.crl

    Signature Algorithm: sha256WithRSAEncryption
    Signature Value:
        27:e9:b7:93:c0:a8:8d:84:ce:50:f8:06:41:41:a8:4b:18:8b:
        4f:a1:12:1c:83:87:ba:04:0f:ba:d8:67:ae:57:8d:6f:50:5a:
        b8:a7:f2:dd:d5:25:85:9e:80:61:1b:8e:9d:24:7a:8a:55:47:
        06:c0:13:1f:9c:74:ab:69:a4:02:31:c7:74:c3:a8:ec:f7:c0:
        2a:12:ab:83:36:69:f6:6c:9f:c7:d5:76:10:30:5d:0c:f6:61:
        ee:f0:f6:73:9a:95:4c:5d:50:7b:de:45:8a:b7:36:29:3e:28:
        af:33:08:3f:f9:d6:6a:1c:33:cf:1a:e9:05:66:20:e8:88:ca:
        b7:ba:24:3c:c2:24:f5:e5:35:30:da:5c:83:03:9c:d9:91:cd:
        60:ca:31:3d:be:af:ec:69:ef:70:2d:cd:a9:c6:e3:b4:96:00:
        85:e4:8e:32:93:86:2b:ef:78:8c:a0:5f:39:2c:be:4b:b8:cc:
        06:b3:14:c9:6c:ec:c3:95:fc:59:ef:f0:fd:6b:be:9d:72:ba:
        1c:42:df:6e:62:7b:1e:35:b5:f9:50:94:f6:40:c2:be:a5:8e:
        27:ae:d0:fb:50:68:d8:14:9d:1f:72:e9:67:d7:91:9a:fa:60:
        14:0c:93:6f:33:04:d0:9b:10:6d:3a:96:d7:65:6e:24:9c:fb:
        17:15:d0:07:ac:e2:94:3f:c9:52:8e:01:1a:eb:ac:a2:bb:b1:
        58:ce:2d:11:70:39:7e:a4:24:81:8c:ca:bb:24:44:cc:a1:6b:
        c7:4d:42:c5:19:d3:c3:c7:2a:c0:63:14:77:29:61:9b:0a:69:
        1e:bd:6c:47:97:67:1b:23:33:60:d6:12:56:fe:ea:9a:f1:f3:
        e9:0e:f6:2a:3e:6d:40:73:3b:b7:5e:80:2a:f8:d7:b4:43:8f:
        b3:3e:ee:f0:e0:7d:e0:58:72:21:f5:c8:e6:3b:bd:4c:54:e3:
        0b:20:19:08:f7:6d:fc:0d:67:eb:d1:fc:36:89:16:13:51:14:
        7d:92:c4:2f:c3:4f
-----BEGIN CERTIFICATE-----
MIIGAjCCBGqgAwIBAgIQMWf2GlB2oum5EPIu9H/ZQjANBgkqhkiG9w0BAQsFADBM
MRswGQYDVQQDExJFViBDb2RlIFNpZ25pbmcgQ0ExCzAJBgNVBAsTAkNBMRMwEQYD
VQQKEwpFeGFtcGxlIENvMQswCQYDVQQGEwJVUzAeFw0yNjA2MjEwNTQ1MTdaFw0y
NzA2MjEwNTQ1MTdaMIHoMRMwEQYDVQQDEwpFeGFtcGxlIENvMRMwEQYDVQQKEwpF
eGFtcGxlIENvMRYwFAYDVQQHEw1Nb3VudGFpbiBWaWV3MRMwEQYDVQQIEwpDYWxp
Zm9ybmlhMQswCQYDVQQGEwJVUzEeMBwGCysGAQQBgjc8AgEBEw1Nb3VudGFpbiBW
aWV3MRswGQYLKwYBBAGCNzwCAQITCkNhbGlmb3JuaWExEzARBgsrBgEEAYI3PAIB
AxMCVVMxETAPBgNVBAUTCDEyMzQ1Njc4MR0wGwYDVQQPExRQcml2YXRlIE9yZ2Fu
aXphdGlvbjCCAaIwDQYJKoZIhvcNAQEBBQADggGPADCCAYoCggGBAO03CT94gnJ6
+MW3wvxw6Td82wrn7X4/BO89SSSpB39xA+gOzqHH2+3aMqknrO8b87siAxlwETA1
3CaIQf1KsQPq9QIyCj0qJzRMfKrmtVF98x06JBCIktKoGulf6P5FYhHq0I9fL5LE
BJBWnESLBvYHSyXW2gk/te61HYp7Q/L/OANASxAb2jv2uu7qNhUjnyFxPmelyww0
uLhCpqigaFBLrdy0aM0QyZ+lxf77QD14eiE3ZoRaiqmyeKMmjUwtJguyKUTKYThu
l7IQCJv7juJUVZ7twLZzvOgelFDiql8el7Rms8+KqHsLJrp1aylIU75aC0lb6WhS
E1+sdbJtm6zkJ3t0WcQkdK2spn3gQk64gTY/eVIhOL1ue0rl3CL4t8Y/Mt1C2kVq
lfMHGz2lyWVXuxMZmQ0JMEtyoMG8XKP+fQGEcDUkPwkEzlQEvmJKb8X6p9fpLn5r
c70S89/gMY6KaX26GUBCcN796ZEotHTGyRhoc9PdNAIkf+zmIE2ZJwIDAQABo4IB
QTCCAT0wDgYDVR0PAQH/BAQDAgeAMBMGA1UdJQQMMAoGCCsGAQUFBwMDMAwGA1Ud
EwEB/wQCMAAwHQYDVR0OBBYEFBYZ/pQrXj7pWhzxHTfKePfl4pYQMB8GA1UdIwQY
MBaAFB90Qk3wY/J30eKGv7UbeHdBI1BeMFsGCCsGAQUFBwEBBE8wTTAjBggrBgEF
BQcwAYYXaHR0cDovL29jc3AuZXhhbXBsZS5jb20wJgYIKwYBBQUHMAKGGmh0dHA6
Ly9leGFtcGxlLmNvbS9jYTEuY3J0MBIGA1UdIAQLMAkwBwYFZ4EMAQMwVwYDVR0f
BFAwTjAloCOgIYYfaHR0cDovL2NybDEuZXhhbXBsZS5jb20vY2ExLmNybDAloCOg
IYYfaHR0cDovL2NybDIuZXhhbXBsZS5jb20vY2ExLmNybDANBgkqhkiG9w0BAQsF
AAOCAYEAJ+m3k8CojYTOUPgGQUGoSxiLT6ESHIOHugQPuthnrleNb1BauKfy3dUl
hZ6AYRuOnSR6ilVHBsATH5x0q2mkAjHHdMOo7PfAKhKrgzZp9myfx9V2EDBdDPZh
7vD2c5qVTF1Qe95Firc2KT4orzMIP/nWahwzzxrpBWYg6IjKt7okPMIk9eU1MNpc
gwOc2ZHNYMoxPb6v7GnvcC3NqcbjtJYAheSOMpOGK+94jKBfOSy+S7jMBrMUyWzs
w5X8We/w/Wu+nXK6HELfbmJ7HjW1+VCU9kDCvqWOJ67Q+1Bo2BSdH3LpZ9eRmvpg
FAyTbzME0JsQbTqW12VuJJz7FxXQB6zilD/JUo4BGuusoruxWM4tEXA5fqQkgYzK
uyREzKFrx01CxRnTw8cqwGMUdylhmwppHr1sR5dnGyMzYNYSVv7qmvHz6Q72Kj5t
QHM7t16AKvjXtEOPsz7u8OB94FhyIfXI5ju9TFTjCyAZCPdt/A1n69H8NokWE1EU
fZLEL8NP
-----END CERTIFICATE-----
