Certificate:
    Data:
        Version: 3 (0x2)
        Serial Number: 18008675309 (0x4316693ed)
        Signature Algorithm: sha256WithRSAEncryption
        Issuer: C = US, O = Mother Nature, OU = Everything, CN = Mother Nature
        Validity
            Not Before: Jun 30 23:59:59 2012 GMT
            Not After : Sep  8 22:57:08 2016 GMT
        Subject: C = US, ST = FL, L = Tallahassee, OU = Chaos, CN = gov.test
        Subject Public Key Info:
            Public Key Algorithm: rsaEncryption
                Public-Key: (2048 bit)
                Modulus:
                    00:ea:95:28:e6:0e:0f:2b:ea:65:59:f6:24:2f:68:
                    51:ec:46:b3:4c:67:52:d6:28:67:d8:25:19:73:8b:
                    34:29:3e:3c:df:64:bd:b1:8b:e9:ef:1a:7b:5e:43:
                    36:9f:b6:1d:de:22:f3:e0:75:b3:3d:6e:3e:98:c8:
                    cf:e1:a8:4e:82:87:fe:12:de:83:c2:fa:00:b3:28:
                    74:5c:42:06:be:09:25:b2:d2:09:93:1a:37:ca:e2:
                    55:15:7a:0b:79:f5:6f:0f:6a:30:76:05:17:3d:6b:
                    63:de:11:92:00:96:74:8a:d0:a4:de:38:01:3c:13:
                    7e:a9:9f:b1:12:bc:f4:32:ee:96:ba:b4:f5:00:6f:
                    28:18:01:b2:98:c2:9f:ee:47:af:9d:82:b9:62:e9:
                    9e:f2:2f:e3:73:7c:2f:87:5e:87:f8:dd:7e:9e:bd:
                    04:aa:e7:e1:82:65:0e:06:6c:b3:20:93:9e:1c:d1:
                    57:a6:6b:1d:41:91:08:17:63:c3:20:60:b3:3c:5a:
                    ab:a2:4f:00:3a:6e:dd:4d:68:ee:35:84:eb:47:df:
                    2a:72:41:1d:a8:97:21:73:c7:ca:30:14:1a:71:0c:
                    48:04:af:f3:b9:60:d2:06:4c:05:c1:91:56:e5:78:
                    e2:60:36:1a:90:9a:32:7b:43:92:f0:06:2a:08:d3:
                    ad:6b
                Exponent: 65537 (0x10001)
        X509v3 extensions:
            X509v3 Key Usage: critical
                Digital Signature, Key Encipherment
            X509v3 Extended Key Usage: 
                TLS Web Client Authentication, TLS Web Server Authentication
            X509v3 Basic Constraints: critical
                CA:FALSE
            X509v3 Authority Key Identifier: 
                01:02:03
            Authority Information Access: 
                OCSP - URI:http://theca.test/ocsp
                CA Issuers - URI:http://theca.test/totallythecert.crt
            X509v3 Certificate Policies: 
                Policy: 2.23.140.1.2.2
            X509v3 Subject Key Identifier: 
                04:03:02:01
            X509v3 Subject Alternative Name: 
                DNS:*.gov.test, DNS:gov.test
    Signature Algorithm: sha256WithRSAEncryption
    Signature Value:
        32:95:4b:08:90:e7:4c:3a:92:68:c4:78:83:01:d9:5b:78:8a:
        77:db:9f:d0:c5:82:cf:ae:67:1d:0c:e5:54:39:98:86:1e:8f:
        33:fe:56:09:55:ce:cb:5f:56:fa:26:d4:bf:2d:2d:4f:51:38:
        3b:e2:eb:e4:62:2f:10:d3:11:aa:31:11:c7:c0:86:76:07:d9:
        73:f1:e4:d0:84:82:60:bc:2e:08:a5:e6:4d:97:56:8b:3e:bb:
        d5:c7:04:a3:b5:6a:60:b5:6f:61:fa:6f:0c:1d:e9:9a:bd:6e:
        57:af:ad:ef:c1:47:d3:71:2a:6b:08:db:8e:64:dc:a8:29:bd:
        14:c3:a5:f9:1c:c3:24:44:48:21:4e:1c:e1:ed:25:90:f4:d8:
        99:3d:85:97:be:6a:69:39:1d:df:7c:e4:1d:4c:3c:20:ae:4e:
        5d:22:e2:c7:94:73:0f:a5:78:73:29:d6:e9:54:46:87:7f:53:
        3b:39:51:79:33:32:06:d6:29:ae:2f:47:c1:95:43:6f:11:eb:
        25:32:73:55:a5:28:e6:29:fa:81:34:45:60:e6:c5:e7:3b:32:
        d3:c4:38:97:77:3f:76:86:f8:58:c1:37:26:41:94:96:11:fc:
        8c:9f:31:54:c5:31:d6:90:f5:b1:95:c2:c9:06:0e:8a:8a:58:
        14:02:1e:1d
-----BEGIN CERTIFICATE-----
MIIEIDCCAwigAwIBAgIFBDFmk+0wDQYJKoZIhvcNAQELBQAwUjELMAkGA1UEBhMC
VVMxFjAUBgNVBAoTDU1vdGhlciBOYXR1cmUxEzARBgNVBAsTCkV2ZXJ5dGhpbmcx
FjAUBgNVBAMTDU1vdGhlciBOYXR1cmUwHhcNMTIwNjMwMjM1OTU5WhcNMTYwOTA4
MjI1NzA4WjBTMQswCQYDVQQGEwJVUzELMAkGA1UECBMCRkwxFDASBgNVBAcTC1Rh
bGxhaGFzc2VlMQ4wDAYDVQQLEwVDaGFvczERMA8GA1UEAxMIZ292LnRlc3QwggEi
MA0GCSqGSIb3DQEBAQUAA4IBDwAwggEKAoIBAQDqlSjmDg8r6mVZ9iQvaFHsRrNM
Z1LWKGfYJRlzizQpPjzfZL2xi+nvGnteQzafth3eIvPgdbM9bj6YyM/hqE6Ch/4S
3oPC+gCzKHRcQga+CSWy0gmTGjfK4lUVegt59W8PajB2BRc9a2PeEZIAlnSK0KTe
OAE8E36pn7ESvPQy7pa6tPUAbygYAbKYwp/uR6+dgrli6Z7yL+NzfC+HXof43X6e
vQSq5+GCZQ4GbLMgk54c0Vemax1BkQgXY8MgYLM8WquiTwA6bt1NaO41hOtH3ypy
QR2olyFzx8owFBpxDEgEr/O5YNIGTAXBkVbleOJgNhqQmjJ7Q5LwBioI061rAgMB
AAGjgfswgfgwDgYDVR0PAQH/BAQDAgWgMB0GA1UdJQQWMBQGCCsGAQUFBwMCBggr
BgEFBQcDATAMBgNVHRMBAf8EAjAAMA4GA1UdIwQHMAWAAwECAzBkBggrBgEFBQcB
AQRYMFYwIgYIKwYBBQUHMAGGFmh0dHA6Ly90aGVjYS50ZXN0L29jc3AwMAYIKwYB
BQUHMAKGJGh0dHA6Ly90aGVjYS50ZXN0L3RvdGFsbHl0aGVjZXJ0LmNydDATBgNV
HSAEDDAKMAgGBmeBDAECAjANBgNVHQ4EBgQEBAMCATAfBgNVHREEGDAWggoqLmdv
di50ZXN0gghnb3YudGVzdDANBgkqhkiG9w0BAQsFAAOCAQEAMpVLCJDnTDqSaMR4
gwHZW3iKd9uf0MWCz65nHQzlVDmYhh6PM/5WCVXOy19W+ibUvy0tT1E4O+Lr5GIv
ENMRqjERx8CGdgfZc/Hk0ISCYLwuCKXmTZdWiz671ccEo7VqYLVvYfpvDB3pmr1u
V6+t78FH03EqawjbjmTcqCm9FMOl+RzDJERIIU4c4e0lkPTYmT2Fl75qaTkd33zk
HUw8IK5OXSLix5RzD6V4cynW6VRGh39TOzlReTMyBtYpri9HwZVDbxHrJTJzVaUo
5in6gTRFYObF5zsy08Q4l3c/dob4WME3JkGUlhH8jJ8xVMUx1pD1sZXCyQYOiopY
FAIeHQ==
-----END CERTIFICATE-----
