Certificate:
    Data:
        Version: 3 (0x2)
        Serial Number:
            15:33:e7:dc:c8:45:b7:20:c1:2d:6a:51:c4:42:28:b6:b3:3b:cd:03
        Signature Algorithm: ecdsa-with-SHA256
        Issuer: C = US, ST = Utah, L = Alta, O = UnitTest Co., CN = UnitTest Root
        Validity
            Not Before: Jun 30 23:59:59 2016 GMT
            Not After : Mar  6 04:40:14 2018 GMT
        Subject: C = US, ST = Utah, L = Alta, O = UnitTest Co., CN = UnitTest OV Server CA
        Subject Public Key Info:
            Public Key Algorithm: id-ecPublicKey
                Public-Key: (256 bit)
                pub:
                    04:fb:19:42:08:37:39:a2:a2:47:ca:c4:e6:82:fe:
                    35:c1:a5:dc:14:cf:80:37:f5:0f:be:fa:11:6d:41:
                    67:34:81:a1:45:b5:6d:3a:57:47:3f:30:42:21:9f:
                    d6:76:33:25:9b:c7:8a:e0:93:97:c6:a0:dd:15:9f:
                    e9:e7:a8:91:f2
                ASN1 OID: prime256v1
                NIST CURVE: P-256
        X509v3 extensions:
            X509v3 Subject Key Identifier: 
                EE:8B:E0:25:6F:98:5A:11:3F:14:41:38:8C:44:C8:04:DB:F1:F8:E8
            X509v3 Authority Key Identifier: 
                EE:8B:E0:25:6F:98:5D:EA:DB:EE:F1:38:8C:44:C8:04:DB:F1:F8:E8
            X509v3 Basic Constraints: critical
                CA:TRUE
            X509v3 Key Usage: critical
                Certificate Sign, CRL Sign
            Authority Information Access: 
                OCSP - URI:http://ocsp.rootca3.example.test
                CA Issuers - URI:http://crt.rootca3.example.test/rootca3.cer
            X509v3 CRL Distribution Points: 
                Full Name:
                  URI:http://crl.rootca3.example.test/rootca3.crl
            X509v3 Certificate Policies: 
                Policy: 2.23.140.1.2.2
    Signature Algorithm: ecdsa-with-SHA256
    Signature Value:
        30:44:02:20:40:b8:05:c5:bb:de:65:cd:45:25:6f:2c:14:8d:
        92:6f:75:92:70:65:78:da:b3:5f:d4:73:92:af:b4:e6:a8:f1:
        02:20:4d:5f:29:d2:91:ab:57:7a:92:19:fd:7d:cd:74:eb:db:
        5e:2c:4c:c2:f9:de:76:66:b3:e3:98:6e:d3:36:5c:77
-----BEGIN CERTIFICATE-----
MIIC7jCCApWgAwIBAgIUFTPn3MhFtyDBLWpRxEIotrM7zQMwCgYIKoZIzj0EAwIw
WjELMAkGA1UEBhMCVVMxDTALBgNVBAgMBFV0YWgxDTALBgNVBAcMBEFsdGExFTAT
BgNVBAoMDFVuaXRUZXN0IENvLjEWMBQGA1UEAwwNVW5pdFRlc3QgUm9vdDAeFw0x
NjA2MzAyMzU5NTlaFw0xODAzMDYwNDQwMTRaMGIxCzAJBgNVBAYTAlVTMQ0wCwYD
VQQIDARVdGFoMQ0wCwYDVQQHDARBbHRhMRUwEwYDVQQKDAxVbml0VGVzdCBDby4x
HjAcBgNVBAMMFVVuaXRUZXN0IE9WIFNlcnZlciBDQTBZMBMGByqGSM49AgEGCCqG
SM49AwEHA0IABPsZQgg3OaKiR8rE5oL+NcGl3BTPgDf1D776EW1BZzSBoUW1bTpX
Rz8wQiGf1nYzJZvHiuCTl8ag3RWf6eeokfKjggEvMIIBKzAdBgNVHQ4EFgQU7ovg
JW+YWhE/FEE4jETIBNvx+OgwHwYDVR0jBBgwFoAU7ovgJW+YXerb7vE4jETIBNvx
+OgwDwYDVR0TAQH/BAUwAwEB/zAOBgNVHQ8BAf8EBAMCAQYwdQYIKwYBBQUHAQEE
aTBnMCwGCCsGAQUFBzABhiBodHRwOi8vb2NzcC5yb290Y2EzLmV4YW1wbGUudGVz
dDA3BggrBgEFBQcwAoYraHR0cDovL2NydC5yb290Y2EzLmV4YW1wbGUudGVzdC9y
b290Y2EzLmNlcjA8BgNVHR8ENTAzMDGgL6AthitodHRwOi8vY3JsLnJvb3RjYTMu
ZXhhbXBsZS50ZXN0L3Jvb3RjYTMuY3JsMBMGA1UdIAQMMAowCAYGZ4EMAQICMAoG
CCqGSM49BAMCA0cAMEQCIEC4BcW73mXNRSVvLBSNkm91knBleNqzX9Rzkq+05qjx
AiBNXynSkatXepIZ/X3NdOvbXixMwvnedmaz45hu0zZcdw==
-----END CERTIFICATE-----
